

Microchip MPLAB XC8 Assembler V2.10 build 88905656 
                                                                                               Sun Mar 22 00:05:26 2020

Microchip MPLAB XC8 C Compiler v2.10 (Free license) build 20190730164152 Og1 
     1                           	processor	16F18446
     2                           	opt	pw 120
     3                           	opt	flic
     4                           	psect	stringtext1,global,class=STRCODE,delta=2
     5                           	psect	cinit,global,class=CODE,merge=1,delta=2
     6                           	psect	bssBANK0,global,class=BANK0,space=1,delta=1
     7                           	psect	clrtext,global,class=CODE,delta=2
     8                           	psect	cstackCOMMON,global,class=COMMON,space=1,delta=1
     9                           	psect	cstackBANK0,global,class=BANK0,space=1,delta=1
    10                           	psect	maintext,global,class=CODE,merge=1,split=1,delta=2
    11                           	psect	text1,local,class=CODE,merge=1,delta=2
    12                           	psect	text2,local,class=CODE,merge=1,delta=2
    13                           	psect	text3,local,class=CODE,merge=1,delta=2
    14                           	psect	text4,local,class=CODE,merge=1,delta=2
    15                           	psect	text5,local,class=CODE,merge=1,delta=2
    16                           	psect	text6,local,class=CODE,merge=1,delta=2
    17                           	psect	text7,local,class=CODE,merge=1,delta=2,group=1
    18                           	psect	text8,local,class=CODE,merge=1,delta=2,group=1
    19                           	psect	text9,local,class=CODE,merge=1,delta=2
    20                           	psect	text10,local,class=CODE,merge=1,delta=2
    21                           	psect	text11,local,class=CODE,merge=1,inline,delta=2
    22                           	psect	text12,local,class=CODE,merge=1,delta=2
    23                           	psect	text13,local,class=CODE,merge=1,delta=2
    24                           	psect	text14,local,class=CODE,merge=1,inline,delta=2
    25                           	psect	text15,local,class=CODE,merge=1,inline,delta=2
    26                           	psect	text16,local,class=CODE,merge=1,delta=2
    27                           	psect	text17,local,class=CODE,merge=1,delta=2
    28                           	psect	text18,local,class=CODE,merge=1,delta=2
    29                           	psect	text19,local,class=CODE,merge=1,delta=2
    30                           	psect	text20,local,class=CODE,merge=1,delta=2
    31                           	psect	text21,local,class=CODE,merge=1,delta=2
    32                           	psect	text22,local,class=CODE,merge=1,delta=2
    33                           	psect	text23,local,class=CODE,merge=1,delta=2
    34                           	psect	text24,local,class=CODE,merge=1,delta=2
    35                           	psect	text25,local,class=CODE,merge=1,delta=2
    36                           	psect	text26,local,class=CODE,merge=1,delta=2
    37                           	psect	text27,local,class=CODE,merge=1,delta=2
    38                           	psect	text28,local,class=CODE,merge=1,delta=2
    39                           	psect	text29,local,class=CODE,merge=1,delta=2
    40                           	psect	text30,local,class=CODE,merge=1,delta=2
    41                           	psect	text31,local,class=CODE,merge=1,delta=2
    42                           	psect	text32,local,class=CODE,merge=1,inline,delta=2
    43                           	psect	text33,local,class=CODE,merge=1,inline,delta=2
    44                           	psect	text34,local,class=CODE,merge=1,inline,delta=2
    45                           	psect	text35,local,class=CODE,merge=1,inline,delta=2
    46                           	psect	text36,local,class=CODE,merge=1,inline,delta=2
    47                           	psect	text37,local,class=CODE,merge=1,inline,delta=2
    48                           	psect	text38,local,class=CODE,merge=1,inline,delta=2
    49                           	psect	text39,local,class=CODE,merge=1,delta=2
    50                           	psect	text40,local,class=CODE,merge=1,delta=2
    51                           	psect	text41,local,class=CODE,merge=1,delta=2
    52                           	psect	text42,local,class=CODE,merge=1,delta=2
    53                           	psect	text43,local,class=CODE,merge=1,delta=2
    54                           	psect	text44,local,class=CODE,merge=1,delta=2
    55                           	psect	text45,local,class=CODE,merge=1,delta=2
    56                           	psect	text46,local,class=CODE,merge=1,delta=2
    57                           	psect	text47,local,class=CODE,merge=1,delta=2
    58                           	psect	text48,local,class=CODE,merge=1,delta=2
    59                           	psect	text49,local,class=CODE,merge=1,inline,delta=2
    60                           	psect	text50,local,class=CODE,merge=1,inline,delta=2
    61                           	psect	text51,local,class=CODE,merge=1,inline,delta=2
    62                           	psect	text52,local,class=CODE,merge=1,delta=2
    63                           	psect	text53,local,class=CODE,merge=1,inline,delta=2
    64                           	psect	text54,local,class=CODE,merge=1,inline,delta=2
    65                           	psect	text55,local,class=CODE,merge=1,inline,delta=2
    66                           	dabs	1,0x7E,2
    67  0000                     
    68                           ; Version 2.10
    69                           ; Generated 31/07/2019 GMT
    70                           ; 
    71                           ; Copyright © 2019, Microchip Technology Inc. and its subsidiaries ("Microchip")
    72                           ; All rights reserved.
    73                           ; 
    74                           ; This software is developed by Microchip Technology Inc. and its subsidiaries ("Microch
      +                          ip").
    75                           ; 
    76                           ; Redistribution and use in source and binary forms, with or without modification, are
    77                           ; permitted provided that the following conditions are met:
    78                           ; 
    79                           ;     1. Redistributions of source code must retain the above copyright notice, this lis
      +                          t of
    80                           ;        conditions and the following disclaimer.
    81                           ; 
    82                           ;     2. Redistributions in binary form must reproduce the above copyright notice, this 
      +                          list
    83                           ;        of conditions and the following disclaimer in the documentation and/or other
    84                           ;        materials provided with the distribution.
    85                           ; 
    86                           ;     3. Microchip's name may not be used to endorse or promote products derived from th
      +                          is
    87                           ;        software without specific prior written permission.
    88                           ; 
    89                           ; THIS SOFTWARE IS PROVIDED BY MICROCHIP "AS IS" AND ANY EXPRESS OR IMPLIED WARRANTIES,
    90                           ; INCLUDING, BUT NOT LIMITED TO, THE IMPLIED WARRANTIES OF MERCHANTABILITY AND FITNESS F
      +                          OR
    91                           ; PURPOSE ARE DISCLAIMED.  IN NO EVENT SHALL MICROCHIP BE LIABLE FOR ANY DIRECT, INDIREC
      +                          T,
    92                           ; INCIDENTAL, SPECIAL, EXEMPLARY, OR CONSEQUENTIAL DAMAGES (INCLUDING BUT NOT LIMITED TO
    93                           ; PROCUREMENT OF SUBSTITUTE GOODS OR SERVICES; LOSS OF USE, DATA OR PROFITS; OR BUSINESS
    94                           ; INTERRUPTION) HOWSOEVER CAUSED AND ON ANY THEORY OF LIABILITY, WHETHER IN CONTRACT, ST
      +                          RICT
    95                           ; LIABILITY, OR TORT (INCLUDING NEGLIGENCE OR OTHERWISE) ARISING IN ANY WAY OUT OF THE U
      +                          SE OF
    96                           ; THIS SOFTWARE, EVEN IF ADVISED OF THE POSSIBILITY OF SUCH DAMAGE.
    97                           ; 
    98                           ; 
    99                           ; Code-generator required, PIC16F18446 Definitions
   100                           ; 
   101                           ; SFR Addresses
   102  0000                     	;# 
   103  0001                     	;# 
   104  0002                     	;# 
   105  0003                     	;# 
   106  0004                     	;# 
   107  0005                     	;# 
   108  0006                     	;# 
   109  0007                     	;# 
   110  0008                     	;# 
   111  0009                     	;# 
   112  000A                     	;# 
   113  000B                     	;# 
   114  000C                     	;# 
   115  000D                     	;# 
   116  000E                     	;# 
   117  0012                     	;# 
   118  0013                     	;# 
   119  0014                     	;# 
   120  0018                     	;# 
   121  0019                     	;# 
   122  001A                     	;# 
   123  008C                     	;# 
   124  008C                     	;# 
   125  008D                     	;# 
   126  008E                     	;# 
   127  008E                     	;# 
   128  008F                     	;# 
   129  0090                     	;# 
   130  0090                     	;# 
   131  0091                     	;# 
   132  0092                     	;# 
   133  0092                     	;# 
   134  0093                     	;# 
   135  0094                     	;# 
   136  0094                     	;# 
   137  0095                     	;# 
   138  0096                     	;# 
   139  0096                     	;# 
   140  0097                     	;# 
   141  0098                     	;# 
   142  0099                     	;# 
   143  009A                     	;# 
   144  009B                     	;# 
   145  009B                     	;# 
   146  009C                     	;# 
   147  009D                     	;# 
   148  009D                     	;# 
   149  009E                     	;# 
   150  009F                     	;# 
   151  010C                     	;# 
   152  010C                     	;# 
   153  010D                     	;# 
   154  010E                     	;# 
   155  010F                     	;# 
   156  010F                     	;# 
   157  0110                     	;# 
   158  0111                     	;# 
   159  0112                     	;# 
   160  0113                     	;# 
   161  0114                     	;# 
   162  0115                     	;# 
   163  0116                     	;# 
   164  0117                     	;# 
   165  0118                     	;# 
   166  0119                     	;# 
   167  0119                     	;# 
   168  0119                     	;# 
   169  011A                     	;# 
   170  011A                     	;# 
   171  011A                     	;# 
   172  011B                     	;# 
   173  011B                     	;# 
   174  011B                     	;# 
   175  011B                     	;# 
   176  011B                     	;# 
   177  011C                     	;# 
   178  011C                     	;# 
   179  011C                     	;# 
   180  011D                     	;# 
   181  011D                     	;# 
   182  011D                     	;# 
   183  011E                     	;# 
   184  011E                     	;# 
   185  011E                     	;# 
   186  011F                     	;# 
   187  011F                     	;# 
   188  011F                     	;# 
   189  011F                     	;# 
   190  011F                     	;# 
   191  018C                     	;# 
   192  018D                     	;# 
   193  018E                     	;# 
   194  018F                     	;# 
   195  0190                     	;# 
   196  0191                     	;# 
   197  0192                     	;# 
   198  0196                     	;# 
   199  0197                     	;# 
   200  0198                     	;# 
   201  0199                     	;# 
   202  019A                     	;# 
   203  019B                     	;# 
   204  019C                     	;# 
   205  020C                     	;# 
   206  020D                     	;# 
   207  020E                     	;# 
   208  020E                     	;# 
   209  020F                     	;# 
   210  020F                     	;# 
   211  0210                     	;# 
   212  0210                     	;# 
   213  0211                     	;# 
   214  0211                     	;# 
   215  0212                     	;# 
   216  0213                     	;# 
   217  0214                     	;# 
   218  0214                     	;# 
   219  0215                     	;# 
   220  0215                     	;# 
   221  0216                     	;# 
   222  0216                     	;# 
   223  0217                     	;# 
   224  0217                     	;# 
   225  0218                     	;# 
   226  0219                     	;# 
   227  021A                     	;# 
   228  021A                     	;# 
   229  021B                     	;# 
   230  021B                     	;# 
   231  021C                     	;# 
   232  021C                     	;# 
   233  021D                     	;# 
   234  021D                     	;# 
   235  021E                     	;# 
   236  021F                     	;# 
   237  028C                     	;# 
   238  028C                     	;# 
   239  028D                     	;# 
   240  028D                     	;# 
   241  028E                     	;# 
   242  028F                     	;# 
   243  0290                     	;# 
   244  0291                     	;# 
   245  0292                     	;# 
   246  0292                     	;# 
   247  0293                     	;# 
   248  0293                     	;# 
   249  0294                     	;# 
   250  0295                     	;# 
   251  0296                     	;# 
   252  0297                     	;# 
   253  0298                     	;# 
   254  0298                     	;# 
   255  0299                     	;# 
   256  0299                     	;# 
   257  029A                     	;# 
   258  029B                     	;# 
   259  029C                     	;# 
   260  029D                     	;# 
   261  029F                     	;# 
   262  030C                     	;# 
   263  030C                     	;# 
   264  030D                     	;# 
   265  030E                     	;# 
   266  030F                     	;# 
   267  0310                     	;# 
   268  0310                     	;# 
   269  0311                     	;# 
   270  0312                     	;# 
   271  0313                     	;# 
   272  0314                     	;# 
   273  0314                     	;# 
   274  0315                     	;# 
   275  0316                     	;# 
   276  0317                     	;# 
   277  0318                     	;# 
   278  0318                     	;# 
   279  0319                     	;# 
   280  031A                     	;# 
   281  031B                     	;# 
   282  038C                     	;# 
   283  038C                     	;# 
   284  038D                     	;# 
   285  038E                     	;# 
   286  0390                     	;# 
   287  0390                     	;# 
   288  0391                     	;# 
   289  0392                     	;# 
   290  048C                     	;# 
   291  048C                     	;# 
   292  048D                     	;# 
   293  048E                     	;# 
   294  048F                     	;# 
   295  048F                     	;# 
   296  0490                     	;# 
   297  0491                     	;# 
   298  0492                     	;# 
   299  0492                     	;# 
   300  0493                     	;# 
   301  0494                     	;# 
   302  0495                     	;# 
   303  0495                     	;# 
   304  0496                     	;# 
   305  0497                     	;# 
   306  0498                     	;# 
   307  0499                     	;# 
   308  049A                     	;# 
   309  049B                     	;# 
   310  049C                     	;# 
   311  049D                     	;# 
   312  058C                     	;# 
   313  058C                     	;# 
   314  058D                     	;# 
   315  058E                     	;# 
   316  058F                     	;# 
   317  058F                     	;# 
   318  0590                     	;# 
   319  0591                     	;# 
   320  0592                     	;# 
   321  0593                     	;# 
   322  059C                     	;# 
   323  059C                     	;# 
   324  059D                     	;# 
   325  059D                     	;# 
   326  059E                     	;# 
   327  059F                     	;# 
   328  060C                     	;# 
   329  060C                     	;# 
   330  060D                     	;# 
   331  060D                     	;# 
   332  060E                     	;# 
   333  060F                     	;# 
   334  0610                     	;# 
   335  0611                     	;# 
   336  0612                     	;# 
   337  0613                     	;# 
   338  0614                     	;# 
   339  0616                     	;# 
   340  0616                     	;# 
   341  0617                     	;# 
   342  0617                     	;# 
   343  0618                     	;# 
   344  0619                     	;# 
   345  061A                     	;# 
   346  061B                     	;# 
   347  061C                     	;# 
   348  061D                     	;# 
   349  061E                     	;# 
   350  070C                     	;# 
   351  070D                     	;# 
   352  070E                     	;# 
   353  070F                     	;# 
   354  0710                     	;# 
   355  0711                     	;# 
   356  0712                     	;# 
   357  0713                     	;# 
   358  0714                     	;# 
   359  0716                     	;# 
   360  0717                     	;# 
   361  0718                     	;# 
   362  0719                     	;# 
   363  071A                     	;# 
   364  071B                     	;# 
   365  071C                     	;# 
   366  071D                     	;# 
   367  071E                     	;# 
   368  0796                     	;# 
   369  0797                     	;# 
   370  0798                     	;# 
   371  0799                     	;# 
   372  079A                     	;# 
   373  079B                     	;# 
   374  079C                     	;# 
   375  079D                     	;# 
   376  080C                     	;# 
   377  080D                     	;# 
   378  080E                     	;# 
   379  080F                     	;# 
   380  0810                     	;# 
   381  0811                     	;# 
   382  0812                     	;# 
   383  0813                     	;# 
   384  0814                     	;# 
   385  081A                     	;# 
   386  081A                     	;# 
   387  081B                     	;# 
   388  081C                     	;# 
   389  081C                     	;# 
   390  081D                     	;# 
   391  081E                     	;# 
   392  081F                     	;# 
   393  088C                     	;# 
   394  088D                     	;# 
   395  088E                     	;# 
   396  088F                     	;# 
   397  0890                     	;# 
   398  0891                     	;# 
   399  0892                     	;# 
   400  0893                     	;# 
   401  0895                     	;# 
   402  0896                     	;# 
   403  0897                     	;# 
   404  0898                     	;# 
   405  0899                     	;# 
   406  089A                     	;# 
   407  089B                     	;# 
   408  090C                     	;# 
   409  090E                     	;# 
   410  090F                     	;# 
   411  091F                     	;# 
   412  098F                     	;# 
   413  098F                     	;# 
   414  0990                     	;# 
   415  0991                     	;# 
   416  0992                     	;# 
   417  0993                     	;# 
   418  0994                     	;# 
   419  0995                     	;# 
   420  0996                     	;# 
   421  0997                     	;# 
   422  1E0F                     	;# 
   423  1E10                     	;# 
   424  1E11                     	;# 
   425  1E12                     	;# 
   426  1E13                     	;# 
   427  1E14                     	;# 
   428  1E15                     	;# 
   429  1E16                     	;# 
   430  1E17                     	;# 
   431  1E18                     	;# 
   432  1E19                     	;# 
   433  1E1A                     	;# 
   434  1E1B                     	;# 
   435  1E1C                     	;# 
   436  1E1D                     	;# 
   437  1E1E                     	;# 
   438  1E1F                     	;# 
   439  1E20                     	;# 
   440  1E21                     	;# 
   441  1E22                     	;# 
   442  1E23                     	;# 
   443  1E24                     	;# 
   444  1E25                     	;# 
   445  1E26                     	;# 
   446  1E27                     	;# 
   447  1E28                     	;# 
   448  1E29                     	;# 
   449  1E2A                     	;# 
   450  1E2B                     	;# 
   451  1E2C                     	;# 
   452  1E2D                     	;# 
   453  1E2E                     	;# 
   454  1E2F                     	;# 
   455  1E30                     	;# 
   456  1E31                     	;# 
   457  1E32                     	;# 
   458  1E33                     	;# 
   459  1E34                     	;# 
   460  1E35                     	;# 
   461  1E36                     	;# 
   462  1E37                     	;# 
   463  1E8F                     	;# 
   464  1E90                     	;# 
   465  1E91                     	;# 
   466  1E92                     	;# 
   467  1E93                     	;# 
   468  1E94                     	;# 
   469  1E95                     	;# 
   470  1E96                     	;# 
   471  1E97                     	;# 
   472  1E9C                     	;# 
   473  1E9D                     	;# 
   474  1E9E                     	;# 
   475  1EA1                     	;# 
   476  1EA2                     	;# 
   477  1EA3                     	;# 
   478  1EA4                     	;# 
   479  1EA9                     	;# 
   480  1EAA                     	;# 
   481  1EB1                     	;# 
   482  1EB2                     	;# 
   483  1EB8                     	;# 
   484  1EB9                     	;# 
   485  1EBA                     	;# 
   486  1EBB                     	;# 
   487  1EBC                     	;# 
   488  1EBD                     	;# 
   489  1EBE                     	;# 
   490  1EC3                     	;# 
   491  1EC5                     	;# 
   492  1EC6                     	;# 
   493  1EC7                     	;# 
   494  1EC8                     	;# 
   495  1EC9                     	;# 
   496  1ECA                     	;# 
   497  1ECB                     	;# 
   498  1ECB                     	;# 
   499  1ECB                     	;# 
   500  1ECC                     	;# 
   501  1ECC                     	;# 
   502  1ECC                     	;# 
   503  1F10                     	;# 
   504  1F11                     	;# 
   505  1F12                     	;# 
   506  1F14                     	;# 
   507  1F15                     	;# 
   508  1F1C                     	;# 
   509  1F1D                     	;# 
   510  1F1E                     	;# 
   511  1F1F                     	;# 
   512  1F20                     	;# 
   513  1F21                     	;# 
   514  1F22                     	;# 
   515  1F23                     	;# 
   516  1F24                     	;# 
   517  1F25                     	;# 
   518  1F26                     	;# 
   519  1F27                     	;# 
   520  1F38                     	;# 
   521  1F39                     	;# 
   522  1F3A                     	;# 
   523  1F3B                     	;# 
   524  1F3C                     	;# 
   525  1F3D                     	;# 
   526  1F3E                     	;# 
   527  1F3F                     	;# 
   528  1F43                     	;# 
   529  1F44                     	;# 
   530  1F45                     	;# 
   531  1F46                     	;# 
   532  1F47                     	;# 
   533  1F48                     	;# 
   534  1F49                     	;# 
   535  1F4A                     	;# 
   536  1F4E                     	;# 
   537  1F4F                     	;# 
   538  1F50                     	;# 
   539  1F51                     	;# 
   540  1F52                     	;# 
   541  1F53                     	;# 
   542  1F54                     	;# 
   543  1F55                     	;# 
   544  1FE4                     	;# 
   545  1FE5                     	;# 
   546  1FE6                     	;# 
   547  1FE7                     	;# 
   548  1FE8                     	;# 
   549  1FE8                     	;# 
   550  1FE9                     	;# 
   551  1FEA                     	;# 
   552  1FEB                     	;# 
   553  1FED                     	;# 
   554  1FEE                     	;# 
   555  1FEF                     	;# 
   556  0000                     	;# 
   557  0001                     	;# 
   558  0002                     	;# 
   559  0003                     	;# 
   560  0004                     	;# 
   561  0005                     	;# 
   562  0006                     	;# 
   563  0007                     	;# 
   564  0008                     	;# 
   565  0009                     	;# 
   566  000A                     	;# 
   567  000B                     	;# 
   568  000C                     	;# 
   569  000D                     	;# 
   570  000E                     	;# 
   571  0012                     	;# 
   572  0013                     	;# 
   573  0014                     	;# 
   574  0018                     	;# 
   575  0019                     	;# 
   576  001A                     	;# 
   577  008C                     	;# 
   578  008C                     	;# 
   579  008D                     	;# 
   580  008E                     	;# 
   581  008E                     	;# 
   582  008F                     	;# 
   583  0090                     	;# 
   584  0090                     	;# 
   585  0091                     	;# 
   586  0092                     	;# 
   587  0092                     	;# 
   588  0093                     	;# 
   589  0094                     	;# 
   590  0094                     	;# 
   591  0095                     	;# 
   592  0096                     	;# 
   593  0096                     	;# 
   594  0097                     	;# 
   595  0098                     	;# 
   596  0099                     	;# 
   597  009A                     	;# 
   598  009B                     	;# 
   599  009B                     	;# 
   600  009C                     	;# 
   601  009D                     	;# 
   602  009D                     	;# 
   603  009E                     	;# 
   604  009F                     	;# 
   605  010C                     	;# 
   606  010C                     	;# 
   607  010D                     	;# 
   608  010E                     	;# 
   609  010F                     	;# 
   610  010F                     	;# 
   611  0110                     	;# 
   612  0111                     	;# 
   613  0112                     	;# 
   614  0113                     	;# 
   615  0114                     	;# 
   616  0115                     	;# 
   617  0116                     	;# 
   618  0117                     	;# 
   619  0118                     	;# 
   620  0119                     	;# 
   621  0119                     	;# 
   622  0119                     	;# 
   623  011A                     	;# 
   624  011A                     	;# 
   625  011A                     	;# 
   626  011B                     	;# 
   627  011B                     	;# 
   628  011B                     	;# 
   629  011B                     	;# 
   630  011B                     	;# 
   631  011C                     	;# 
   632  011C                     	;# 
   633  011C                     	;# 
   634  011D                     	;# 
   635  011D                     	;# 
   636  011D                     	;# 
   637  011E                     	;# 
   638  011E                     	;# 
   639  011E                     	;# 
   640  011F                     	;# 
   641  011F                     	;# 
   642  011F                     	;# 
   643  011F                     	;# 
   644  011F                     	;# 
   645  018C                     	;# 
   646  018D                     	;# 
   647  018E                     	;# 
   648  018F                     	;# 
   649  0190                     	;# 
   650  0191                     	;# 
   651  0192                     	;# 
   652  0196                     	;# 
   653  0197                     	;# 
   654  0198                     	;# 
   655  0199                     	;# 
   656  019A                     	;# 
   657  019B                     	;# 
   658  019C                     	;# 
   659  020C                     	;# 
   660  020D                     	;# 
   661  020E                     	;# 
   662  020E                     	;# 
   663  020F                     	;# 
   664  020F                     	;# 
   665  0210                     	;# 
   666  0210                     	;# 
   667  0211                     	;# 
   668  0211                     	;# 
   669  0212                     	;# 
   670  0213                     	;# 
   671  0214                     	;# 
   672  0214                     	;# 
   673  0215                     	;# 
   674  0215                     	;# 
   675  0216                     	;# 
   676  0216                     	;# 
   677  0217                     	;# 
   678  0217                     	;# 
   679  0218                     	;# 
   680  0219                     	;# 
   681  021A                     	;# 
   682  021A                     	;# 
   683  021B                     	;# 
   684  021B                     	;# 
   685  021C                     	;# 
   686  021C                     	;# 
   687  021D                     	;# 
   688  021D                     	;# 
   689  021E                     	;# 
   690  021F                     	;# 
   691  028C                     	;# 
   692  028C                     	;# 
   693  028D                     	;# 
   694  028D                     	;# 
   695  028E                     	;# 
   696  028F                     	;# 
   697  0290                     	;# 
   698  0291                     	;# 
   699  0292                     	;# 
   700  0292                     	;# 
   701  0293                     	;# 
   702  0293                     	;# 
   703  0294                     	;# 
   704  0295                     	;# 
   705  0296                     	;# 
   706  0297                     	;# 
   707  0298                     	;# 
   708  0298                     	;# 
   709  0299                     	;# 
   710  0299                     	;# 
   711  029A                     	;# 
   712  029B                     	;# 
   713  029C                     	;# 
   714  029D                     	;# 
   715  029F                     	;# 
   716  030C                     	;# 
   717  030C                     	;# 
   718  030D                     	;# 
   719  030E                     	;# 
   720  030F                     	;# 
   721  0310                     	;# 
   722  0310                     	;# 
   723  0311                     	;# 
   724  0312                     	;# 
   725  0313                     	;# 
   726  0314                     	;# 
   727  0314                     	;# 
   728  0315                     	;# 
   729  0316                     	;# 
   730  0317                     	;# 
   731  0318                     	;# 
   732  0318                     	;# 
   733  0319                     	;# 
   734  031A                     	;# 
   735  031B                     	;# 
   736  038C                     	;# 
   737  038C                     	;# 
   738  038D                     	;# 
   739  038E                     	;# 
   740  0390                     	;# 
   741  0390                     	;# 
   742  0391                     	;# 
   743  0392                     	;# 
   744  048C                     	;# 
   745  048C                     	;# 
   746  048D                     	;# 
   747  048E                     	;# 
   748  048F                     	;# 
   749  048F                     	;# 
   750  0490                     	;# 
   751  0491                     	;# 
   752  0492                     	;# 
   753  0492                     	;# 
   754  0493                     	;# 
   755  0494                     	;# 
   756  0495                     	;# 
   757  0495                     	;# 
   758  0496                     	;# 
   759  0497                     	;# 
   760  0498                     	;# 
   761  0499                     	;# 
   762  049A                     	;# 
   763  049B                     	;# 
   764  049C                     	;# 
   765  049D                     	;# 
   766  058C                     	;# 
   767  058C                     	;# 
   768  058D                     	;# 
   769  058E                     	;# 
   770  058F                     	;# 
   771  058F                     	;# 
   772  0590                     	;# 
   773  0591                     	;# 
   774  0592                     	;# 
   775  0593                     	;# 
   776  059C                     	;# 
   777  059C                     	;# 
   778  059D                     	;# 
   779  059D                     	;# 
   780  059E                     	;# 
   781  059F                     	;# 
   782  060C                     	;# 
   783  060C                     	;# 
   784  060D                     	;# 
   785  060D                     	;# 
   786  060E                     	;# 
   787  060F                     	;# 
   788  0610                     	;# 
   789  0611                     	;# 
   790  0612                     	;# 
   791  0613                     	;# 
   792  0614                     	;# 
   793  0616                     	;# 
   794  0616                     	;# 
   795  0617                     	;# 
   796  0617                     	;# 
   797  0618                     	;# 
   798  0619                     	;# 
   799  061A                     	;# 
   800  061B                     	;# 
   801  061C                     	;# 
   802  061D                     	;# 
   803  061E                     	;# 
   804  070C                     	;# 
   805  070D                     	;# 
   806  070E                     	;# 
   807  070F                     	;# 
   808  0710                     	;# 
   809  0711                     	;# 
   810  0712                     	;# 
   811  0713                     	;# 
   812  0714                     	;# 
   813  0716                     	;# 
   814  0717                     	;# 
   815  0718                     	;# 
   816  0719                     	;# 
   817  071A                     	;# 
   818  071B                     	;# 
   819  071C                     	;# 
   820  071D                     	;# 
   821  071E                     	;# 
   822  0796                     	;# 
   823  0797                     	;# 
   824  0798                     	;# 
   825  0799                     	;# 
   826  079A                     	;# 
   827  079B                     	;# 
   828  079C                     	;# 
   829  079D                     	;# 
   830  080C                     	;# 
   831  080D                     	;# 
   832  080E                     	;# 
   833  080F                     	;# 
   834  0810                     	;# 
   835  0811                     	;# 
   836  0812                     	;# 
   837  0813                     	;# 
   838  0814                     	;# 
   839  081A                     	;# 
   840  081A                     	;# 
   841  081B                     	;# 
   842  081C                     	;# 
   843  081C                     	;# 
   844  081D                     	;# 
   845  081E                     	;# 
   846  081F                     	;# 
   847  088C                     	;# 
   848  088D                     	;# 
   849  088E                     	;# 
   850  088F                     	;# 
   851  0890                     	;# 
   852  0891                     	;# 
   853  0892                     	;# 
   854  0893                     	;# 
   855  0895                     	;# 
   856  0896                     	;# 
   857  0897                     	;# 
   858  0898                     	;# 
   859  0899                     	;# 
   860  089A                     	;# 
   861  089B                     	;# 
   862  090C                     	;# 
   863  090E                     	;# 
   864  090F                     	;# 
   865  091F                     	;# 
   866  098F                     	;# 
   867  098F                     	;# 
   868  0990                     	;# 
   869  0991                     	;# 
   870  0992                     	;# 
   871  0993                     	;# 
   872  0994                     	;# 
   873  0995                     	;# 
   874  0996                     	;# 
   875  0997                     	;# 
   876  1E0F                     	;# 
   877  1E10                     	;# 
   878  1E11                     	;# 
   879  1E12                     	;# 
   880  1E13                     	;# 
   881  1E14                     	;# 
   882  1E15                     	;# 
   883  1E16                     	;# 
   884  1E17                     	;# 
   885  1E18                     	;# 
   886  1E19                     	;# 
   887  1E1A                     	;# 
   888  1E1B                     	;# 
   889  1E1C                     	;# 
   890  1E1D                     	;# 
   891  1E1E                     	;# 
   892  1E1F                     	;# 
   893  1E20                     	;# 
   894  1E21                     	;# 
   895  1E22                     	;# 
   896  1E23                     	;# 
   897  1E24                     	;# 
   898  1E25                     	;# 
   899  1E26                     	;# 
   900  1E27                     	;# 
   901  1E28                     	;# 
   902  1E29                     	;# 
   903  1E2A                     	;# 
   904  1E2B                     	;# 
   905  1E2C                     	;# 
   906  1E2D                     	;# 
   907  1E2E                     	;# 
   908  1E2F                     	;# 
   909  1E30                     	;# 
   910  1E31                     	;# 
   911  1E32                     	;# 
   912  1E33                     	;# 
   913  1E34                     	;# 
   914  1E35                     	;# 
   915  1E36                     	;# 
   916  1E37                     	;# 
   917  1E8F                     	;# 
   918  1E90                     	;# 
   919  1E91                     	;# 
   920  1E92                     	;# 
   921  1E93                     	;# 
   922  1E94                     	;# 
   923  1E95                     	;# 
   924  1E96                     	;# 
   925  1E97                     	;# 
   926  1E9C                     	;# 
   927  1E9D                     	;# 
   928  1E9E                     	;# 
   929  1EA1                     	;# 
   930  1EA2                     	;# 
   931  1EA3                     	;# 
   932  1EA4                     	;# 
   933  1EA9                     	;# 
   934  1EAA                     	;# 
   935  1EB1                     	;# 
   936  1EB2                     	;# 
   937  1EB8                     	;# 
   938  1EB9                     	;# 
   939  1EBA                     	;# 
   940  1EBB                     	;# 
   941  1EBC                     	;# 
   942  1EBD                     	;# 
   943  1EBE                     	;# 
   944  1EC3                     	;# 
   945  1EC5                     	;# 
   946  1EC6                     	;# 
   947  1EC7                     	;# 
   948  1EC8                     	;# 
   949  1EC9                     	;# 
   950  1ECA                     	;# 
   951  1ECB                     	;# 
   952  1ECB                     	;# 
   953  1ECB                     	;# 
   954  1ECC                     	;# 
   955  1ECC                     	;# 
   956  1ECC                     	;# 
   957  1F10                     	;# 
   958  1F11                     	;# 
   959  1F12                     	;# 
   960  1F14                     	;# 
   961  1F15                     	;# 
   962  1F1C                     	;# 
   963  1F1D                     	;# 
   964  1F1E                     	;# 
   965  1F1F                     	;# 
   966  1F20                     	;# 
   967  1F21                     	;# 
   968  1F22                     	;# 
   969  1F23                     	;# 
   970  1F24                     	;# 
   971  1F25                     	;# 
   972  1F26                     	;# 
   973  1F27                     	;# 
   974  1F38                     	;# 
   975  1F39                     	;# 
   976  1F3A                     	;# 
   977  1F3B                     	;# 
   978  1F3C                     	;# 
   979  1F3D                     	;# 
   980  1F3E                     	;# 
   981  1F3F                     	;# 
   982  1F43                     	;# 
   983  1F44                     	;# 
   984  1F45                     	;# 
   985  1F46                     	;# 
   986  1F47                     	;# 
   987  1F48                     	;# 
   988  1F49                     	;# 
   989  1F4A                     	;# 
   990  1F4E                     	;# 
   991  1F4F                     	;# 
   992  1F50                     	;# 
   993  1F51                     	;# 
   994  1F52                     	;# 
   995  1F53                     	;# 
   996  1F54                     	;# 
   997  1F55                     	;# 
   998  1FE4                     	;# 
   999  1FE5                     	;# 
  1000  1FE6                     	;# 
  1001  1FE7                     	;# 
  1002  1FE8                     	;# 
  1003  1FE8                     	;# 
  1004  1FE9                     	;# 
  1005  1FEA                     	;# 
  1006  1FEB                     	;# 
  1007  1FED                     	;# 
  1008  1FEE                     	;# 
  1009  1FEF                     	;# 
  1010  0000                     	;# 
  1011  0001                     	;# 
  1012  0002                     	;# 
  1013  0003                     	;# 
  1014  0004                     	;# 
  1015  0005                     	;# 
  1016  0006                     	;# 
  1017  0007                     	;# 
  1018  0008                     	;# 
  1019  0009                     	;# 
  1020  000A                     	;# 
  1021  000B                     	;# 
  1022  000C                     	;# 
  1023  000D                     	;# 
  1024  000E                     	;# 
  1025  0012                     	;# 
  1026  0013                     	;# 
  1027  0014                     	;# 
  1028  0018                     	;# 
  1029  0019                     	;# 
  1030  001A                     	;# 
  1031  008C                     	;# 
  1032  008C                     	;# 
  1033  008D                     	;# 
  1034  008E                     	;# 
  1035  008E                     	;# 
  1036  008F                     	;# 
  1037  0090                     	;# 
  1038  0090                     	;# 
  1039  0091                     	;# 
  1040  0092                     	;# 
  1041  0092                     	;# 
  1042  0093                     	;# 
  1043  0094                     	;# 
  1044  0094                     	;# 
  1045  0095                     	;# 
  1046  0096                     	;# 
  1047  0096                     	;# 
  1048  0097                     	;# 
  1049  0098                     	;# 
  1050  0099                     	;# 
  1051  009A                     	;# 
  1052  009B                     	;# 
  1053  009B                     	;# 
  1054  009C                     	;# 
  1055  009D                     	;# 
  1056  009D                     	;# 
  1057  009E                     	;# 
  1058  009F                     	;# 
  1059  010C                     	;# 
  1060  010C                     	;# 
  1061  010D                     	;# 
  1062  010E                     	;# 
  1063  010F                     	;# 
  1064  010F                     	;# 
  1065  0110                     	;# 
  1066  0111                     	;# 
  1067  0112                     	;# 
  1068  0113                     	;# 
  1069  0114                     	;# 
  1070  0115                     	;# 
  1071  0116                     	;# 
  1072  0117                     	;# 
  1073  0118                     	;# 
  1074  0119                     	;# 
  1075  0119                     	;# 
  1076  0119                     	;# 
  1077  011A                     	;# 
  1078  011A                     	;# 
  1079  011A                     	;# 
  1080  011B                     	;# 
  1081  011B                     	;# 
  1082  011B                     	;# 
  1083  011B                     	;# 
  1084  011B                     	;# 
  1085  011C                     	;# 
  1086  011C                     	;# 
  1087  011C                     	;# 
  1088  011D                     	;# 
  1089  011D                     	;# 
  1090  011D                     	;# 
  1091  011E                     	;# 
  1092  011E                     	;# 
  1093  011E                     	;# 
  1094  011F                     	;# 
  1095  011F                     	;# 
  1096  011F                     	;# 
  1097  011F                     	;# 
  1098  011F                     	;# 
  1099  018C                     	;# 
  1100  018D                     	;# 
  1101  018E                     	;# 
  1102  018F                     	;# 
  1103  0190                     	;# 
  1104  0191                     	;# 
  1105  0192                     	;# 
  1106  0196                     	;# 
  1107  0197                     	;# 
  1108  0198                     	;# 
  1109  0199                     	;# 
  1110  019A                     	;# 
  1111  019B                     	;# 
  1112  019C                     	;# 
  1113  020C                     	;# 
  1114  020D                     	;# 
  1115  020E                     	;# 
  1116  020E                     	;# 
  1117  020F                     	;# 
  1118  020F                     	;# 
  1119  0210                     	;# 
  1120  0210                     	;# 
  1121  0211                     	;# 
  1122  0211                     	;# 
  1123  0212                     	;# 
  1124  0213                     	;# 
  1125  0214                     	;# 
  1126  0214                     	;# 
  1127  0215                     	;# 
  1128  0215                     	;# 
  1129  0216                     	;# 
  1130  0216                     	;# 
  1131  0217                     	;# 
  1132  0217                     	;# 
  1133  0218                     	;# 
  1134  0219                     	;# 
  1135  021A                     	;# 
  1136  021A                     	;# 
  1137  021B                     	;# 
  1138  021B                     	;# 
  1139  021C                     	;# 
  1140  021C                     	;# 
  1141  021D                     	;# 
  1142  021D                     	;# 
  1143  021E                     	;# 
  1144  021F                     	;# 
  1145  028C                     	;# 
  1146  028C                     	;# 
  1147  028D                     	;# 
  1148  028D                     	;# 
  1149  028E                     	;# 
  1150  028F                     	;# 
  1151  0290                     	;# 
  1152  0291                     	;# 
  1153  0292                     	;# 
  1154  0292                     	;# 
  1155  0293                     	;# 
  1156  0293                     	;# 
  1157  0294                     	;# 
  1158  0295                     	;# 
  1159  0296                     	;# 
  1160  0297                     	;# 
  1161  0298                     	;# 
  1162  0298                     	;# 
  1163  0299                     	;# 
  1164  0299                     	;# 
  1165  029A                     	;# 
  1166  029B                     	;# 
  1167  029C                     	;# 
  1168  029D                     	;# 
  1169  029F                     	;# 
  1170  030C                     	;# 
  1171  030C                     	;# 
  1172  030D                     	;# 
  1173  030E                     	;# 
  1174  030F                     	;# 
  1175  0310                     	;# 
  1176  0310                     	;# 
  1177  0311                     	;# 
  1178  0312                     	;# 
  1179  0313                     	;# 
  1180  0314                     	;# 
  1181  0314                     	;# 
  1182  0315                     	;# 
  1183  0316                     	;# 
  1184  0317                     	;# 
  1185  0318                     	;# 
  1186  0318                     	;# 
  1187  0319                     	;# 
  1188  031A                     	;# 
  1189  031B                     	;# 
  1190  038C                     	;# 
  1191  038C                     	;# 
  1192  038D                     	;# 
  1193  038E                     	;# 
  1194  0390                     	;# 
  1195  0390                     	;# 
  1196  0391                     	;# 
  1197  0392                     	;# 
  1198  048C                     	;# 
  1199  048C                     	;# 
  1200  048D                     	;# 
  1201  048E                     	;# 
  1202  048F                     	;# 
  1203  048F                     	;# 
  1204  0490                     	;# 
  1205  0491                     	;# 
  1206  0492                     	;# 
  1207  0492                     	;# 
  1208  0493                     	;# 
  1209  0494                     	;# 
  1210  0495                     	;# 
  1211  0495                     	;# 
  1212  0496                     	;# 
  1213  0497                     	;# 
  1214  0498                     	;# 
  1215  0499                     	;# 
  1216  049A                     	;# 
  1217  049B                     	;# 
  1218  049C                     	;# 
  1219  049D                     	;# 
  1220  058C                     	;# 
  1221  058C                     	;# 
  1222  058D                     	;# 
  1223  058E                     	;# 
  1224  058F                     	;# 
  1225  058F                     	;# 
  1226  0590                     	;# 
  1227  0591                     	;# 
  1228  0592                     	;# 
  1229  0593                     	;# 
  1230  059C                     	;# 
  1231  059C                     	;# 
  1232  059D                     	;# 
  1233  059D                     	;# 
  1234  059E                     	;# 
  1235  059F                     	;# 
  1236  060C                     	;# 
  1237  060C                     	;# 
  1238  060D                     	;# 
  1239  060D                     	;# 
  1240  060E                     	;# 
  1241  060F                     	;# 
  1242  0610                     	;# 
  1243  0611                     	;# 
  1244  0612                     	;# 
  1245  0613                     	;# 
  1246  0614                     	;# 
  1247  0616                     	;# 
  1248  0616                     	;# 
  1249  0617                     	;# 
  1250  0617                     	;# 
  1251  0618                     	;# 
  1252  0619                     	;# 
  1253  061A                     	;# 
  1254  061B                     	;# 
  1255  061C                     	;# 
  1256  061D                     	;# 
  1257  061E                     	;# 
  1258  070C                     	;# 
  1259  070D                     	;# 
  1260  070E                     	;# 
  1261  070F                     	;# 
  1262  0710                     	;# 
  1263  0711                     	;# 
  1264  0712                     	;# 
  1265  0713                     	;# 
  1266  0714                     	;# 
  1267  0716                     	;# 
  1268  0717                     	;# 
  1269  0718                     	;# 
  1270  0719                     	;# 
  1271  071A                     	;# 
  1272  071B                     	;# 
  1273  071C                     	;# 
  1274  071D                     	;# 
  1275  071E                     	;# 
  1276  0796                     	;# 
  1277  0797                     	;# 
  1278  0798                     	;# 
  1279  0799                     	;# 
  1280  079A                     	;# 
  1281  079B                     	;# 
  1282  079C                     	;# 
  1283  079D                     	;# 
  1284  080C                     	;# 
  1285  080D                     	;# 
  1286  080E                     	;# 
  1287  080F                     	;# 
  1288  0810                     	;# 
  1289  0811                     	;# 
  1290  0812                     	;# 
  1291  0813                     	;# 
  1292  0814                     	;# 
  1293  081A                     	;# 
  1294  081A                     	;# 
  1295  081B                     	;# 
  1296  081C                     	;# 
  1297  081C                     	;# 
  1298  081D                     	;# 
  1299  081E                     	;# 
  1300  081F                     	;# 
  1301  088C                     	;# 
  1302  088D                     	;# 
  1303  088E                     	;# 
  1304  088F                     	;# 
  1305  0890                     	;# 
  1306  0891                     	;# 
  1307  0892                     	;# 
  1308  0893                     	;# 
  1309  0895                     	;# 
  1310  0896                     	;# 
  1311  0897                     	;# 
  1312  0898                     	;# 
  1313  0899                     	;# 
  1314  089A                     	;# 
  1315  089B                     	;# 
  1316  090C                     	;# 
  1317  090E                     	;# 
  1318  090F                     	;# 
  1319  091F                     	;# 
  1320  098F                     	;# 
  1321  098F                     	;# 
  1322  0990                     	;# 
  1323  0991                     	;# 
  1324  0992                     	;# 
  1325  0993                     	;# 
  1326  0994                     	;# 
  1327  0995                     	;# 
  1328  0996                     	;# 
  1329  0997                     	;# 
  1330  1E0F                     	;# 
  1331  1E10                     	;# 
  1332  1E11                     	;# 
  1333  1E12                     	;# 
  1334  1E13                     	;# 
  1335  1E14                     	;# 
  1336  1E15                     	;# 
  1337  1E16                     	;# 
  1338  1E17                     	;# 
  1339  1E18                     	;# 
  1340  1E19                     	;# 
  1341  1E1A                     	;# 
  1342  1E1B                     	;# 
  1343  1E1C                     	;# 
  1344  1E1D                     	;# 
  1345  1E1E                     	;# 
  1346  1E1F                     	;# 
  1347  1E20                     	;# 
  1348  1E21                     	;# 
  1349  1E22                     	;# 
  1350  1E23                     	;# 
  1351  1E24                     	;# 
  1352  1E25                     	;# 
  1353  1E26                     	;# 
  1354  1E27                     	;# 
  1355  1E28                     	;# 
  1356  1E29                     	;# 
  1357  1E2A                     	;# 
  1358  1E2B                     	;# 
  1359  1E2C                     	;# 
  1360  1E2D                     	;# 
  1361  1E2E                     	;# 
  1362  1E2F                     	;# 
  1363  1E30                     	;# 
  1364  1E31                     	;# 
  1365  1E32                     	;# 
  1366  1E33                     	;# 
  1367  1E34                     	;# 
  1368  1E35                     	;# 
  1369  1E36                     	;# 
  1370  1E37                     	;# 
  1371  1E8F                     	;# 
  1372  1E90                     	;# 
  1373  1E91                     	;# 
  1374  1E92                     	;# 
  1375  1E93                     	;# 
  1376  1E94                     	;# 
  1377  1E95                     	;# 
  1378  1E96                     	;# 
  1379  1E97                     	;# 
  1380  1E9C                     	;# 
  1381  1E9D                     	;# 
  1382  1E9E                     	;# 
  1383  1EA1                     	;# 
  1384  1EA2                     	;# 
  1385  1EA3                     	;# 
  1386  1EA4                     	;# 
  1387  1EA9                     	;# 
  1388  1EAA                     	;# 
  1389  1EB1                     	;# 
  1390  1EB2                     	;# 
  1391  1EB8                     	;# 
  1392  1EB9                     	;# 
  1393  1EBA                     	;# 
  1394  1EBB                     	;# 
  1395  1EBC                     	;# 
  1396  1EBD                     	;# 
  1397  1EBE                     	;# 
  1398  1EC3                     	;# 
  1399  1EC5                     	;# 
  1400  1EC6                     	;# 
  1401  1EC7                     	;# 
  1402  1EC8                     	;# 
  1403  1EC9                     	;# 
  1404  1ECA                     	;# 
  1405  1ECB                     	;# 
  1406  1ECB                     	;# 
  1407  1ECB                     	;# 
  1408  1ECC                     	;# 
  1409  1ECC                     	;# 
  1410  1ECC                     	;# 
  1411  1F10                     	;# 
  1412  1F11                     	;# 
  1413  1F12                     	;# 
  1414  1F14                     	;# 
  1415  1F15                     	;# 
  1416  1F1C                     	;# 
  1417  1F1D                     	;# 
  1418  1F1E                     	;# 
  1419  1F1F                     	;# 
  1420  1F20                     	;# 
  1421  1F21                     	;# 
  1422  1F22                     	;# 
  1423  1F23                     	;# 
  1424  1F24                     	;# 
  1425  1F25                     	;# 
  1426  1F26                     	;# 
  1427  1F27                     	;# 
  1428  1F38                     	;# 
  1429  1F39                     	;# 
  1430  1F3A                     	;# 
  1431  1F3B                     	;# 
  1432  1F3C                     	;# 
  1433  1F3D                     	;# 
  1434  1F3E                     	;# 
  1435  1F3F                     	;# 
  1436  1F43                     	;# 
  1437  1F44                     	;# 
  1438  1F45                     	;# 
  1439  1F46                     	;# 
  1440  1F47                     	;# 
  1441  1F48                     	;# 
  1442  1F49                     	;# 
  1443  1F4A                     	;# 
  1444  1F4E                     	;# 
  1445  1F4F                     	;# 
  1446  1F50                     	;# 
  1447  1F51                     	;# 
  1448  1F52                     	;# 
  1449  1F53                     	;# 
  1450  1F54                     	;# 
  1451  1F55                     	;# 
  1452  1FE4                     	;# 
  1453  1FE5                     	;# 
  1454  1FE6                     	;# 
  1455  1FE7                     	;# 
  1456  1FE8                     	;# 
  1457  1FE8                     	;# 
  1458  1FE9                     	;# 
  1459  1FEA                     	;# 
  1460  1FEB                     	;# 
  1461  1FED                     	;# 
  1462  1FEE                     	;# 
  1463  1FEF                     	;# 
  1464  0000                     	;# 
  1465  0001                     	;# 
  1466  0002                     	;# 
  1467  0003                     	;# 
  1468  0004                     	;# 
  1469  0005                     	;# 
  1470  0006                     	;# 
  1471  0007                     	;# 
  1472  0008                     	;# 
  1473  0009                     	;# 
  1474  000A                     	;# 
  1475  000B                     	;# 
  1476  000C                     	;# 
  1477  000D                     	;# 
  1478  000E                     	;# 
  1479  0012                     	;# 
  1480  0013                     	;# 
  1481  0014                     	;# 
  1482  0018                     	;# 
  1483  0019                     	;# 
  1484  001A                     	;# 
  1485  008C                     	;# 
  1486  008C                     	;# 
  1487  008D                     	;# 
  1488  008E                     	;# 
  1489  008E                     	;# 
  1490  008F                     	;# 
  1491  0090                     	;# 
  1492  0090                     	;# 
  1493  0091                     	;# 
  1494  0092                     	;# 
  1495  0092                     	;# 
  1496  0093                     	;# 
  1497  0094                     	;# 
  1498  0094                     	;# 
  1499  0095                     	;# 
  1500  0096                     	;# 
  1501  0096                     	;# 
  1502  0097                     	;# 
  1503  0098                     	;# 
  1504  0099                     	;# 
  1505  009A                     	;# 
  1506  009B                     	;# 
  1507  009B                     	;# 
  1508  009C                     	;# 
  1509  009D                     	;# 
  1510  009D                     	;# 
  1511  009E                     	;# 
  1512  009F                     	;# 
  1513  010C                     	;# 
  1514  010C                     	;# 
  1515  010D                     	;# 
  1516  010E                     	;# 
  1517  010F                     	;# 
  1518  010F                     	;# 
  1519  0110                     	;# 
  1520  0111                     	;# 
  1521  0112                     	;# 
  1522  0113                     	;# 
  1523  0114                     	;# 
  1524  0115                     	;# 
  1525  0116                     	;# 
  1526  0117                     	;# 
  1527  0118                     	;# 
  1528  0119                     	;# 
  1529  0119                     	;# 
  1530  0119                     	;# 
  1531  011A                     	;# 
  1532  011A                     	;# 
  1533  011A                     	;# 
  1534  011B                     	;# 
  1535  011B                     	;# 
  1536  011B                     	;# 
  1537  011B                     	;# 
  1538  011B                     	;# 
  1539  011C                     	;# 
  1540  011C                     	;# 
  1541  011C                     	;# 
  1542  011D                     	;# 
  1543  011D                     	;# 
  1544  011D                     	;# 
  1545  011E                     	;# 
  1546  011E                     	;# 
  1547  011E                     	;# 
  1548  011F                     	;# 
  1549  011F                     	;# 
  1550  011F                     	;# 
  1551  011F                     	;# 
  1552  011F                     	;# 
  1553  018C                     	;# 
  1554  018D                     	;# 
  1555  018E                     	;# 
  1556  018F                     	;# 
  1557  0190                     	;# 
  1558  0191                     	;# 
  1559  0192                     	;# 
  1560  0196                     	;# 
  1561  0197                     	;# 
  1562  0198                     	;# 
  1563  0199                     	;# 
  1564  019A                     	;# 
  1565  019B                     	;# 
  1566  019C                     	;# 
  1567  020C                     	;# 
  1568  020D                     	;# 
  1569  020E                     	;# 
  1570  020E                     	;# 
  1571  020F                     	;# 
  1572  020F                     	;# 
  1573  0210                     	;# 
  1574  0210                     	;# 
  1575  0211                     	;# 
  1576  0211                     	;# 
  1577  0212                     	;# 
  1578  0213                     	;# 
  1579  0214                     	;# 
  1580  0214                     	;# 
  1581  0215                     	;# 
  1582  0215                     	;# 
  1583  0216                     	;# 
  1584  0216                     	;# 
  1585  0217                     	;# 
  1586  0217                     	;# 
  1587  0218                     	;# 
  1588  0219                     	;# 
  1589  021A                     	;# 
  1590  021A                     	;# 
  1591  021B                     	;# 
  1592  021B                     	;# 
  1593  021C                     	;# 
  1594  021C                     	;# 
  1595  021D                     	;# 
  1596  021D                     	;# 
  1597  021E                     	;# 
  1598  021F                     	;# 
  1599  028C                     	;# 
  1600  028C                     	;# 
  1601  028D                     	;# 
  1602  028D                     	;# 
  1603  028E                     	;# 
  1604  028F                     	;# 
  1605  0290                     	;# 
  1606  0291                     	;# 
  1607  0292                     	;# 
  1608  0292                     	;# 
  1609  0293                     	;# 
  1610  0293                     	;# 
  1611  0294                     	;# 
  1612  0295                     	;# 
  1613  0296                     	;# 
  1614  0297                     	;# 
  1615  0298                     	;# 
  1616  0298                     	;# 
  1617  0299                     	;# 
  1618  0299                     	;# 
  1619  029A                     	;# 
  1620  029B                     	;# 
  1621  029C                     	;# 
  1622  029D                     	;# 
  1623  029F                     	;# 
  1624  030C                     	;# 
  1625  030C                     	;# 
  1626  030D                     	;# 
  1627  030E                     	;# 
  1628  030F                     	;# 
  1629  0310                     	;# 
  1630  0310                     	;# 
  1631  0311                     	;# 
  1632  0312                     	;# 
  1633  0313                     	;# 
  1634  0314                     	;# 
  1635  0314                     	;# 
  1636  0315                     	;# 
  1637  0316                     	;# 
  1638  0317                     	;# 
  1639  0318                     	;# 
  1640  0318                     	;# 
  1641  0319                     	;# 
  1642  031A                     	;# 
  1643  031B                     	;# 
  1644  038C                     	;# 
  1645  038C                     	;# 
  1646  038D                     	;# 
  1647  038E                     	;# 
  1648  0390                     	;# 
  1649  0390                     	;# 
  1650  0391                     	;# 
  1651  0392                     	;# 
  1652  048C                     	;# 
  1653  048C                     	;# 
  1654  048D                     	;# 
  1655  048E                     	;# 
  1656  048F                     	;# 
  1657  048F                     	;# 
  1658  0490                     	;# 
  1659  0491                     	;# 
  1660  0492                     	;# 
  1661  0492                     	;# 
  1662  0493                     	;# 
  1663  0494                     	;# 
  1664  0495                     	;# 
  1665  0495                     	;# 
  1666  0496                     	;# 
  1667  0497                     	;# 
  1668  0498                     	;# 
  1669  0499                     	;# 
  1670  049A                     	;# 
  1671  049B                     	;# 
  1672  049C                     	;# 
  1673  049D                     	;# 
  1674  058C                     	;# 
  1675  058C                     	;# 
  1676  058D                     	;# 
  1677  058E                     	;# 
  1678  058F                     	;# 
  1679  058F                     	;# 
  1680  0590                     	;# 
  1681  0591                     	;# 
  1682  0592                     	;# 
  1683  0593                     	;# 
  1684  059C                     	;# 
  1685  059C                     	;# 
  1686  059D                     	;# 
  1687  059D                     	;# 
  1688  059E                     	;# 
  1689  059F                     	;# 
  1690  060C                     	;# 
  1691  060C                     	;# 
  1692  060D                     	;# 
  1693  060D                     	;# 
  1694  060E                     	;# 
  1695  060F                     	;# 
  1696  0610                     	;# 
  1697  0611                     	;# 
  1698  0612                     	;# 
  1699  0613                     	;# 
  1700  0614                     	;# 
  1701  0616                     	;# 
  1702  0616                     	;# 
  1703  0617                     	;# 
  1704  0617                     	;# 
  1705  0618                     	;# 
  1706  0619                     	;# 
  1707  061A                     	;# 
  1708  061B                     	;# 
  1709  061C                     	;# 
  1710  061D                     	;# 
  1711  061E                     	;# 
  1712  070C                     	;# 
  1713  070D                     	;# 
  1714  070E                     	;# 
  1715  070F                     	;# 
  1716  0710                     	;# 
  1717  0711                     	;# 
  1718  0712                     	;# 
  1719  0713                     	;# 
  1720  0714                     	;# 
  1721  0716                     	;# 
  1722  0717                     	;# 
  1723  0718                     	;# 
  1724  0719                     	;# 
  1725  071A                     	;# 
  1726  071B                     	;# 
  1727  071C                     	;# 
  1728  071D                     	;# 
  1729  071E                     	;# 
  1730  0796                     	;# 
  1731  0797                     	;# 
  1732  0798                     	;# 
  1733  0799                     	;# 
  1734  079A                     	;# 
  1735  079B                     	;# 
  1736  079C                     	;# 
  1737  079D                     	;# 
  1738  080C                     	;# 
  1739  080D                     	;# 
  1740  080E                     	;# 
  1741  080F                     	;# 
  1742  0810                     	;# 
  1743  0811                     	;# 
  1744  0812                     	;# 
  1745  0813                     	;# 
  1746  0814                     	;# 
  1747  081A                     	;# 
  1748  081A                     	;# 
  1749  081B                     	;# 
  1750  081C                     	;# 
  1751  081C                     	;# 
  1752  081D                     	;# 
  1753  081E                     	;# 
  1754  081F                     	;# 
  1755  088C                     	;# 
  1756  088D                     	;# 
  1757  088E                     	;# 
  1758  088F                     	;# 
  1759  0890                     	;# 
  1760  0891                     	;# 
  1761  0892                     	;# 
  1762  0893                     	;# 
  1763  0895                     	;# 
  1764  0896                     	;# 
  1765  0897                     	;# 
  1766  0898                     	;# 
  1767  0899                     	;# 
  1768  089A                     	;# 
  1769  089B                     	;# 
  1770  090C                     	;# 
  1771  090E                     	;# 
  1772  090F                     	;# 
  1773  091F                     	;# 
  1774  098F                     	;# 
  1775  098F                     	;# 
  1776  0990                     	;# 
  1777  0991                     	;# 
  1778  0992                     	;# 
  1779  0993                     	;# 
  1780  0994                     	;# 
  1781  0995                     	;# 
  1782  0996                     	;# 
  1783  0997                     	;# 
  1784  1E0F                     	;# 
  1785  1E10                     	;# 
  1786  1E11                     	;# 
  1787  1E12                     	;# 
  1788  1E13                     	;# 
  1789  1E14                     	;# 
  1790  1E15                     	;# 
  1791  1E16                     	;# 
  1792  1E17                     	;# 
  1793  1E18                     	;# 
  1794  1E19                     	;# 
  1795  1E1A                     	;# 
  1796  1E1B                     	;# 
  1797  1E1C                     	;# 
  1798  1E1D                     	;# 
  1799  1E1E                     	;# 
  1800  1E1F                     	;# 
  1801  1E20                     	;# 
  1802  1E21                     	;# 
  1803  1E22                     	;# 
  1804  1E23                     	;# 
  1805  1E24                     	;# 
  1806  1E25                     	;# 
  1807  1E26                     	;# 
  1808  1E27                     	;# 
  1809  1E28                     	;# 
  1810  1E29                     	;# 
  1811  1E2A                     	;# 
  1812  1E2B                     	;# 
  1813  1E2C                     	;# 
  1814  1E2D                     	;# 
  1815  1E2E                     	;# 
  1816  1E2F                     	;# 
  1817  1E30                     	;# 
  1818  1E31                     	;# 
  1819  1E32                     	;# 
  1820  1E33                     	;# 
  1821  1E34                     	;# 
  1822  1E35                     	;# 
  1823  1E36                     	;# 
  1824  1E37                     	;# 
  1825  1E8F                     	;# 
  1826  1E90                     	;# 
  1827  1E91                     	;# 
  1828  1E92                     	;# 
  1829  1E93                     	;# 
  1830  1E94                     	;# 
  1831  1E95                     	;# 
  1832  1E96                     	;# 
  1833  1E97                     	;# 
  1834  1E9C                     	;# 
  1835  1E9D                     	;# 
  1836  1E9E                     	;# 
  1837  1EA1                     	;# 
  1838  1EA2                     	;# 
  1839  1EA3                     	;# 
  1840  1EA4                     	;# 
  1841  1EA9                     	;# 
  1842  1EAA                     	;# 
  1843  1EB1                     	;# 
  1844  1EB2                     	;# 
  1845  1EB8                     	;# 
  1846  1EB9                     	;# 
  1847  1EBA                     	;# 
  1848  1EBB                     	;# 
  1849  1EBC                     	;# 
  1850  1EBD                     	;# 
  1851  1EBE                     	;# 
  1852  1EC3                     	;# 
  1853  1EC5                     	;# 
  1854  1EC6                     	;# 
  1855  1EC7                     	;# 
  1856  1EC8                     	;# 
  1857  1EC9                     	;# 
  1858  1ECA                     	;# 
  1859  1ECB                     	;# 
  1860  1ECB                     	;# 
  1861  1ECB                     	;# 
  1862  1ECC                     	;# 
  1863  1ECC                     	;# 
  1864  1ECC                     	;# 
  1865  1F10                     	;# 
  1866  1F11                     	;# 
  1867  1F12                     	;# 
  1868  1F14                     	;# 
  1869  1F15                     	;# 
  1870  1F1C                     	;# 
  1871  1F1D                     	;# 
  1872  1F1E                     	;# 
  1873  1F1F                     	;# 
  1874  1F20                     	;# 
  1875  1F21                     	;# 
  1876  1F22                     	;# 
  1877  1F23                     	;# 
  1878  1F24                     	;# 
  1879  1F25                     	;# 
  1880  1F26                     	;# 
  1881  1F27                     	;# 
  1882  1F38                     	;# 
  1883  1F39                     	;# 
  1884  1F3A                     	;# 
  1885  1F3B                     	;# 
  1886  1F3C                     	;# 
  1887  1F3D                     	;# 
  1888  1F3E                     	;# 
  1889  1F3F                     	;# 
  1890  1F43                     	;# 
  1891  1F44                     	;# 
  1892  1F45                     	;# 
  1893  1F46                     	;# 
  1894  1F47                     	;# 
  1895  1F48                     	;# 
  1896  1F49                     	;# 
  1897  1F4A                     	;# 
  1898  1F4E                     	;# 
  1899  1F4F                     	;# 
  1900  1F50                     	;# 
  1901  1F51                     	;# 
  1902  1F52                     	;# 
  1903  1F53                     	;# 
  1904  1F54                     	;# 
  1905  1F55                     	;# 
  1906  1FE4                     	;# 
  1907  1FE5                     	;# 
  1908  1FE6                     	;# 
  1909  1FE7                     	;# 
  1910  1FE8                     	;# 
  1911  1FE8                     	;# 
  1912  1FE9                     	;# 
  1913  1FEA                     	;# 
  1914  1FEB                     	;# 
  1915  1FED                     	;# 
  1916  1FEE                     	;# 
  1917  1FEF                     	;# 
  1918  0000                     	;# 
  1919  0001                     	;# 
  1920  0002                     	;# 
  1921  0003                     	;# 
  1922  0004                     	;# 
  1923  0005                     	;# 
  1924  0006                     	;# 
  1925  0007                     	;# 
  1926  0008                     	;# 
  1927  0009                     	;# 
  1928  000A                     	;# 
  1929  000B                     	;# 
  1930  000C                     	;# 
  1931  000D                     	;# 
  1932  000E                     	;# 
  1933  0012                     	;# 
  1934  0013                     	;# 
  1935  0014                     	;# 
  1936  0018                     	;# 
  1937  0019                     	;# 
  1938  001A                     	;# 
  1939  008C                     	;# 
  1940  008C                     	;# 
  1941  008D                     	;# 
  1942  008E                     	;# 
  1943  008E                     	;# 
  1944  008F                     	;# 
  1945  0090                     	;# 
  1946  0090                     	;# 
  1947  0091                     	;# 
  1948  0092                     	;# 
  1949  0092                     	;# 
  1950  0093                     	;# 
  1951  0094                     	;# 
  1952  0094                     	;# 
  1953  0095                     	;# 
  1954  0096                     	;# 
  1955  0096                     	;# 
  1956  0097                     	;# 
  1957  0098                     	;# 
  1958  0099                     	;# 
  1959  009A                     	;# 
  1960  009B                     	;# 
  1961  009B                     	;# 
  1962  009C                     	;# 
  1963  009D                     	;# 
  1964  009D                     	;# 
  1965  009E                     	;# 
  1966  009F                     	;# 
  1967  010C                     	;# 
  1968  010C                     	;# 
  1969  010D                     	;# 
  1970  010E                     	;# 
  1971  010F                     	;# 
  1972  010F                     	;# 
  1973  0110                     	;# 
  1974  0111                     	;# 
  1975  0112                     	;# 
  1976  0113                     	;# 
  1977  0114                     	;# 
  1978  0115                     	;# 
  1979  0116                     	;# 
  1980  0117                     	;# 
  1981  0118                     	;# 
  1982  0119                     	;# 
  1983  0119                     	;# 
  1984  0119                     	;# 
  1985  011A                     	;# 
  1986  011A                     	;# 
  1987  011A                     	;# 
  1988  011B                     	;# 
  1989  011B                     	;# 
  1990  011B                     	;# 
  1991  011B                     	;# 
  1992  011B                     	;# 
  1993  011C                     	;# 
  1994  011C                     	;# 
  1995  011C                     	;# 
  1996  011D                     	;# 
  1997  011D                     	;# 
  1998  011D                     	;# 
  1999  011E                     	;# 
  2000  011E                     	;# 
  2001  011E                     	;# 
  2002  011F                     	;# 
  2003  011F                     	;# 
  2004  011F                     	;# 
  2005  011F                     	;# 
  2006  011F                     	;# 
  2007  018C                     	;# 
  2008  018D                     	;# 
  2009  018E                     	;# 
  2010  018F                     	;# 
  2011  0190                     	;# 
  2012  0191                     	;# 
  2013  0192                     	;# 
  2014  0196                     	;# 
  2015  0197                     	;# 
  2016  0198                     	;# 
  2017  0199                     	;# 
  2018  019A                     	;# 
  2019  019B                     	;# 
  2020  019C                     	;# 
  2021  020C                     	;# 
  2022  020D                     	;# 
  2023  020E                     	;# 
  2024  020E                     	;# 
  2025  020F                     	;# 
  2026  020F                     	;# 
  2027  0210                     	;# 
  2028  0210                     	;# 
  2029  0211                     	;# 
  2030  0211                     	;# 
  2031  0212                     	;# 
  2032  0213                     	;# 
  2033  0214                     	;# 
  2034  0214                     	;# 
  2035  0215                     	;# 
  2036  0215                     	;# 
  2037  0216                     	;# 
  2038  0216                     	;# 
  2039  0217                     	;# 
  2040  0217                     	;# 
  2041  0218                     	;# 
  2042  0219                     	;# 
  2043  021A                     	;# 
  2044  021A                     	;# 
  2045  021B                     	;# 
  2046  021B                     	;# 
  2047  021C                     	;# 
  2048  021C                     	;# 
  2049  021D                     	;# 
  2050  021D                     	;# 
  2051  021E                     	;# 
  2052  021F                     	;# 
  2053  028C                     	;# 
  2054  028C                     	;# 
  2055  028D                     	;# 
  2056  028D                     	;# 
  2057  028E                     	;# 
  2058  028F                     	;# 
  2059  0290                     	;# 
  2060  0291                     	;# 
  2061  0292                     	;# 
  2062  0292                     	;# 
  2063  0293                     	;# 
  2064  0293                     	;# 
  2065  0294                     	;# 
  2066  0295                     	;# 
  2067  0296                     	;# 
  2068  0297                     	;# 
  2069  0298                     	;# 
  2070  0298                     	;# 
  2071  0299                     	;# 
  2072  0299                     	;# 
  2073  029A                     	;# 
  2074  029B                     	;# 
  2075  029C                     	;# 
  2076  029D                     	;# 
  2077  029F                     	;# 
  2078  030C                     	;# 
  2079  030C                     	;# 
  2080  030D                     	;# 
  2081  030E                     	;# 
  2082  030F                     	;# 
  2083  0310                     	;# 
  2084  0310                     	;# 
  2085  0311                     	;# 
  2086  0312                     	;# 
  2087  0313                     	;# 
  2088  0314                     	;# 
  2089  0314                     	;# 
  2090  0315                     	;# 
  2091  0316                     	;# 
  2092  0317                     	;# 
  2093  0318                     	;# 
  2094  0318                     	;# 
  2095  0319                     	;# 
  2096  031A                     	;# 
  2097  031B                     	;# 
  2098  038C                     	;# 
  2099  038C                     	;# 
  2100  038D                     	;# 
  2101  038E                     	;# 
  2102  0390                     	;# 
  2103  0390                     	;# 
  2104  0391                     	;# 
  2105  0392                     	;# 
  2106  048C                     	;# 
  2107  048C                     	;# 
  2108  048D                     	;# 
  2109  048E                     	;# 
  2110  048F                     	;# 
  2111  048F                     	;# 
  2112  0490                     	;# 
  2113  0491                     	;# 
  2114  0492                     	;# 
  2115  0492                     	;# 
  2116  0493                     	;# 
  2117  0494                     	;# 
  2118  0495                     	;# 
  2119  0495                     	;# 
  2120  0496                     	;# 
  2121  0497                     	;# 
  2122  0498                     	;# 
  2123  0499                     	;# 
  2124  049A                     	;# 
  2125  049B                     	;# 
  2126  049C                     	;# 
  2127  049D                     	;# 
  2128  058C                     	;# 
  2129  058C                     	;# 
  2130  058D                     	;# 
  2131  058E                     	;# 
  2132  058F                     	;# 
  2133  058F                     	;# 
  2134  0590                     	;# 
  2135  0591                     	;# 
  2136  0592                     	;# 
  2137  0593                     	;# 
  2138  059C                     	;# 
  2139  059C                     	;# 
  2140  059D                     	;# 
  2141  059D                     	;# 
  2142  059E                     	;# 
  2143  059F                     	;# 
  2144  060C                     	;# 
  2145  060C                     	;# 
  2146  060D                     	;# 
  2147  060D                     	;# 
  2148  060E                     	;# 
  2149  060F                     	;# 
  2150  0610                     	;# 
  2151  0611                     	;# 
  2152  0612                     	;# 
  2153  0613                     	;# 
  2154  0614                     	;# 
  2155  0616                     	;# 
  2156  0616                     	;# 
  2157  0617                     	;# 
  2158  0617                     	;# 
  2159  0618                     	;# 
  2160  0619                     	;# 
  2161  061A                     	;# 
  2162  061B                     	;# 
  2163  061C                     	;# 
  2164  061D                     	;# 
  2165  061E                     	;# 
  2166  070C                     	;# 
  2167  070D                     	;# 
  2168  070E                     	;# 
  2169  070F                     	;# 
  2170  0710                     	;# 
  2171  0711                     	;# 
  2172  0712                     	;# 
  2173  0713                     	;# 
  2174  0714                     	;# 
  2175  0716                     	;# 
  2176  0717                     	;# 
  2177  0718                     	;# 
  2178  0719                     	;# 
  2179  071A                     	;# 
  2180  071B                     	;# 
  2181  071C                     	;# 
  2182  071D                     	;# 
  2183  071E                     	;# 
  2184  0796                     	;# 
  2185  0797                     	;# 
  2186  0798                     	;# 
  2187  0799                     	;# 
  2188  079A                     	;# 
  2189  079B                     	;# 
  2190  079C                     	;# 
  2191  079D                     	;# 
  2192  080C                     	;# 
  2193  080D                     	;# 
  2194  080E                     	;# 
  2195  080F                     	;# 
  2196  0810                     	;# 
  2197  0811                     	;# 
  2198  0812                     	;# 
  2199  0813                     	;# 
  2200  0814                     	;# 
  2201  081A                     	;# 
  2202  081A                     	;# 
  2203  081B                     	;# 
  2204  081C                     	;# 
  2205  081C                     	;# 
  2206  081D                     	;# 
  2207  081E                     	;# 
  2208  081F                     	;# 
  2209  088C                     	;# 
  2210  088D                     	;# 
  2211  088E                     	;# 
  2212  088F                     	;# 
  2213  0890                     	;# 
  2214  0891                     	;# 
  2215  0892                     	;# 
  2216  0893                     	;# 
  2217  0895                     	;# 
  2218  0896                     	;# 
  2219  0897                     	;# 
  2220  0898                     	;# 
  2221  0899                     	;# 
  2222  089A                     	;# 
  2223  089B                     	;# 
  2224  090C                     	;# 
  2225  090E                     	;# 
  2226  090F                     	;# 
  2227  091F                     	;# 
  2228  098F                     	;# 
  2229  098F                     	;# 
  2230  0990                     	;# 
  2231  0991                     	;# 
  2232  0992                     	;# 
  2233  0993                     	;# 
  2234  0994                     	;# 
  2235  0995                     	;# 
  2236  0996                     	;# 
  2237  0997                     	;# 
  2238  1E0F                     	;# 
  2239  1E10                     	;# 
  2240  1E11                     	;# 
  2241  1E12                     	;# 
  2242  1E13                     	;# 
  2243  1E14                     	;# 
  2244  1E15                     	;# 
  2245  1E16                     	;# 
  2246  1E17                     	;# 
  2247  1E18                     	;# 
  2248  1E19                     	;# 
  2249  1E1A                     	;# 
  2250  1E1B                     	;# 
  2251  1E1C                     	;# 
  2252  1E1D                     	;# 
  2253  1E1E                     	;# 
  2254  1E1F                     	;# 
  2255  1E20                     	;# 
  2256  1E21                     	;# 
  2257  1E22                     	;# 
  2258  1E23                     	;# 
  2259  1E24                     	;# 
  2260  1E25                     	;# 
  2261  1E26                     	;# 
  2262  1E27                     	;# 
  2263  1E28                     	;# 
  2264  1E29                     	;# 
  2265  1E2A                     	;# 
  2266  1E2B                     	;# 
  2267  1E2C                     	;# 
  2268  1E2D                     	;# 
  2269  1E2E                     	;# 
  2270  1E2F                     	;# 
  2271  1E30                     	;# 
  2272  1E31                     	;# 
  2273  1E32                     	;# 
  2274  1E33                     	;# 
  2275  1E34                     	;# 
  2276  1E35                     	;# 
  2277  1E36                     	;# 
  2278  1E37                     	;# 
  2279  1E8F                     	;# 
  2280  1E90                     	;# 
  2281  1E91                     	;# 
  2282  1E92                     	;# 
  2283  1E93                     	;# 
  2284  1E94                     	;# 
  2285  1E95                     	;# 
  2286  1E96                     	;# 
  2287  1E97                     	;# 
  2288  1E9C                     	;# 
  2289  1E9D                     	;# 
  2290  1E9E                     	;# 
  2291  1EA1                     	;# 
  2292  1EA2                     	;# 
  2293  1EA3                     	;# 
  2294  1EA4                     	;# 
  2295  1EA9                     	;# 
  2296  1EAA                     	;# 
  2297  1EB1                     	;# 
  2298  1EB2                     	;# 
  2299  1EB8                     	;# 
  2300  1EB9                     	;# 
  2301  1EBA                     	;# 
  2302  1EBB                     	;# 
  2303  1EBC                     	;# 
  2304  1EBD                     	;# 
  2305  1EBE                     	;# 
  2306  1EC3                     	;# 
  2307  1EC5                     	;# 
  2308  1EC6                     	;# 
  2309  1EC7                     	;# 
  2310  1EC8                     	;# 
  2311  1EC9                     	;# 
  2312  1ECA                     	;# 
  2313  1ECB                     	;# 
  2314  1ECB                     	;# 
  2315  1ECB                     	;# 
  2316  1ECC                     	;# 
  2317  1ECC                     	;# 
  2318  1ECC                     	;# 
  2319  1F10                     	;# 
  2320  1F11                     	;# 
  2321  1F12                     	;# 
  2322  1F14                     	;# 
  2323  1F15                     	;# 
  2324  1F1C                     	;# 
  2325  1F1D                     	;# 
  2326  1F1E                     	;# 
  2327  1F1F                     	;# 
  2328  1F20                     	;# 
  2329  1F21                     	;# 
  2330  1F22                     	;# 
  2331  1F23                     	;# 
  2332  1F24                     	;# 
  2333  1F25                     	;# 
  2334  1F26                     	;# 
  2335  1F27                     	;# 
  2336  1F38                     	;# 
  2337  1F39                     	;# 
  2338  1F3A                     	;# 
  2339  1F3B                     	;# 
  2340  1F3C                     	;# 
  2341  1F3D                     	;# 
  2342  1F3E                     	;# 
  2343  1F3F                     	;# 
  2344  1F43                     	;# 
  2345  1F44                     	;# 
  2346  1F45                     	;# 
  2347  1F46                     	;# 
  2348  1F47                     	;# 
  2349  1F48                     	;# 
  2350  1F49                     	;# 
  2351  1F4A                     	;# 
  2352  1F4E                     	;# 
  2353  1F4F                     	;# 
  2354  1F50                     	;# 
  2355  1F51                     	;# 
  2356  1F52                     	;# 
  2357  1F53                     	;# 
  2358  1F54                     	;# 
  2359  1F55                     	;# 
  2360  1FE4                     	;# 
  2361  1FE5                     	;# 
  2362  1FE6                     	;# 
  2363  1FE7                     	;# 
  2364  1FE8                     	;# 
  2365  1FE8                     	;# 
  2366  1FE9                     	;# 
  2367  1FEA                     	;# 
  2368  1FEB                     	;# 
  2369  1FED                     	;# 
  2370  1FEE                     	;# 
  2371  1FEF                     	;# 
  2372  0000                     	;# 
  2373  0001                     	;# 
  2374  0002                     	;# 
  2375  0003                     	;# 
  2376  0004                     	;# 
  2377  0005                     	;# 
  2378  0006                     	;# 
  2379  0007                     	;# 
  2380  0008                     	;# 
  2381  0009                     	;# 
  2382  000A                     	;# 
  2383  000B                     	;# 
  2384  000C                     	;# 
  2385  000D                     	;# 
  2386  000E                     	;# 
  2387  0012                     	;# 
  2388  0013                     	;# 
  2389  0014                     	;# 
  2390  0018                     	;# 
  2391  0019                     	;# 
  2392  001A                     	;# 
  2393  008C                     	;# 
  2394  008C                     	;# 
  2395  008D                     	;# 
  2396  008E                     	;# 
  2397  008E                     	;# 
  2398  008F                     	;# 
  2399  0090                     	;# 
  2400  0090                     	;# 
  2401  0091                     	;# 
  2402  0092                     	;# 
  2403  0092                     	;# 
  2404  0093                     	;# 
  2405  0094                     	;# 
  2406  0094                     	;# 
  2407  0095                     	;# 
  2408  0096                     	;# 
  2409  0096                     	;# 
  2410  0097                     	;# 
  2411  0098                     	;# 
  2412  0099                     	;# 
  2413  009A                     	;# 
  2414  009B                     	;# 
  2415  009B                     	;# 
  2416  009C                     	;# 
  2417  009D                     	;# 
  2418  009D                     	;# 
  2419  009E                     	;# 
  2420  009F                     	;# 
  2421  010C                     	;# 
  2422  010C                     	;# 
  2423  010D                     	;# 
  2424  010E                     	;# 
  2425  010F                     	;# 
  2426  010F                     	;# 
  2427  0110                     	;# 
  2428  0111                     	;# 
  2429  0112                     	;# 
  2430  0113                     	;# 
  2431  0114                     	;# 
  2432  0115                     	;# 
  2433  0116                     	;# 
  2434  0117                     	;# 
  2435  0118                     	;# 
  2436  0119                     	;# 
  2437  0119                     	;# 
  2438  0119                     	;# 
  2439  011A                     	;# 
  2440  011A                     	;# 
  2441  011A                     	;# 
  2442  011B                     	;# 
  2443  011B                     	;# 
  2444  011B                     	;# 
  2445  011B                     	;# 
  2446  011B                     	;# 
  2447  011C                     	;# 
  2448  011C                     	;# 
  2449  011C                     	;# 
  2450  011D                     	;# 
  2451  011D                     	;# 
  2452  011D                     	;# 
  2453  011E                     	;# 
  2454  011E                     	;# 
  2455  011E                     	;# 
  2456  011F                     	;# 
  2457  011F                     	;# 
  2458  011F                     	;# 
  2459  011F                     	;# 
  2460  011F                     	;# 
  2461  018C                     	;# 
  2462  018D                     	;# 
  2463  018E                     	;# 
  2464  018F                     	;# 
  2465  0190                     	;# 
  2466  0191                     	;# 
  2467  0192                     	;# 
  2468  0196                     	;# 
  2469  0197                     	;# 
  2470  0198                     	;# 
  2471  0199                     	;# 
  2472  019A                     	;# 
  2473  019B                     	;# 
  2474  019C                     	;# 
  2475  020C                     	;# 
  2476  020D                     	;# 
  2477  020E                     	;# 
  2478  020E                     	;# 
  2479  020F                     	;# 
  2480  020F                     	;# 
  2481  0210                     	;# 
  2482  0210                     	;# 
  2483  0211                     	;# 
  2484  0211                     	;# 
  2485  0212                     	;# 
  2486  0213                     	;# 
  2487  0214                     	;# 
  2488  0214                     	;# 
  2489  0215                     	;# 
  2490  0215                     	;# 
  2491  0216                     	;# 
  2492  0216                     	;# 
  2493  0217                     	;# 
  2494  0217                     	;# 
  2495  0218                     	;# 
  2496  0219                     	;# 
  2497  021A                     	;# 
  2498  021A                     	;# 
  2499  021B                     	;# 
  2500  021B                     	;# 
  2501  021C                     	;# 
  2502  021C                     	;# 
  2503  021D                     	;# 
  2504  021D                     	;# 
  2505  021E                     	;# 
  2506  021F                     	;# 
  2507  028C                     	;# 
  2508  028C                     	;# 
  2509  028D                     	;# 
  2510  028D                     	;# 
  2511  028E                     	;# 
  2512  028F                     	;# 
  2513  0290                     	;# 
  2514  0291                     	;# 
  2515  0292                     	;# 
  2516  0292                     	;# 
  2517  0293                     	;# 
  2518  0293                     	;# 
  2519  0294                     	;# 
  2520  0295                     	;# 
  2521  0296                     	;# 
  2522  0297                     	;# 
  2523  0298                     	;# 
  2524  0298                     	;# 
  2525  0299                     	;# 
  2526  0299                     	;# 
  2527  029A                     	;# 
  2528  029B                     	;# 
  2529  029C                     	;# 
  2530  029D                     	;# 
  2531  029F                     	;# 
  2532  030C                     	;# 
  2533  030C                     	;# 
  2534  030D                     	;# 
  2535  030E                     	;# 
  2536  030F                     	;# 
  2537  0310                     	;# 
  2538  0310                     	;# 
  2539  0311                     	;# 
  2540  0312                     	;# 
  2541  0313                     	;# 
  2542  0314                     	;# 
  2543  0314                     	;# 
  2544  0315                     	;# 
  2545  0316                     	;# 
  2546  0317                     	;# 
  2547  0318                     	;# 
  2548  0318                     	;# 
  2549  0319                     	;# 
  2550  031A                     	;# 
  2551  031B                     	;# 
  2552  038C                     	;# 
  2553  038C                     	;# 
  2554  038D                     	;# 
  2555  038E                     	;# 
  2556  0390                     	;# 
  2557  0390                     	;# 
  2558  0391                     	;# 
  2559  0392                     	;# 
  2560  048C                     	;# 
  2561  048C                     	;# 
  2562  048D                     	;# 
  2563  048E                     	;# 
  2564  048F                     	;# 
  2565  048F                     	;# 
  2566  0490                     	;# 
  2567  0491                     	;# 
  2568  0492                     	;# 
  2569  0492                     	;# 
  2570  0493                     	;# 
  2571  0494                     	;# 
  2572  0495                     	;# 
  2573  0495                     	;# 
  2574  0496                     	;# 
  2575  0497                     	;# 
  2576  0498                     	;# 
  2577  0499                     	;# 
  2578  049A                     	;# 
  2579  049B                     	;# 
  2580  049C                     	;# 
  2581  049D                     	;# 
  2582  058C                     	;# 
  2583  058C                     	;# 
  2584  058D                     	;# 
  2585  058E                     	;# 
  2586  058F                     	;# 
  2587  058F                     	;# 
  2588  0590                     	;# 
  2589  0591                     	;# 
  2590  0592                     	;# 
  2591  0593                     	;# 
  2592  059C                     	;# 
  2593  059C                     	;# 
  2594  059D                     	;# 
  2595  059D                     	;# 
  2596  059E                     	;# 
  2597  059F                     	;# 
  2598  060C                     	;# 
  2599  060C                     	;# 
  2600  060D                     	;# 
  2601  060D                     	;# 
  2602  060E                     	;# 
  2603  060F                     	;# 
  2604  0610                     	;# 
  2605  0611                     	;# 
  2606  0612                     	;# 
  2607  0613                     	;# 
  2608  0614                     	;# 
  2609  0616                     	;# 
  2610  0616                     	;# 
  2611  0617                     	;# 
  2612  0617                     	;# 
  2613  0618                     	;# 
  2614  0619                     	;# 
  2615  061A                     	;# 
  2616  061B                     	;# 
  2617  061C                     	;# 
  2618  061D                     	;# 
  2619  061E                     	;# 
  2620  070C                     	;# 
  2621  070D                     	;# 
  2622  070E                     	;# 
  2623  070F                     	;# 
  2624  0710                     	;# 
  2625  0711                     	;# 
  2626  0712                     	;# 
  2627  0713                     	;# 
  2628  0714                     	;# 
  2629  0716                     	;# 
  2630  0717                     	;# 
  2631  0718                     	;# 
  2632  0719                     	;# 
  2633  071A                     	;# 
  2634  071B                     	;# 
  2635  071C                     	;# 
  2636  071D                     	;# 
  2637  071E                     	;# 
  2638  0796                     	;# 
  2639  0797                     	;# 
  2640  0798                     	;# 
  2641  0799                     	;# 
  2642  079A                     	;# 
  2643  079B                     	;# 
  2644  079C                     	;# 
  2645  079D                     	;# 
  2646  080C                     	;# 
  2647  080D                     	;# 
  2648  080E                     	;# 
  2649  080F                     	;# 
  2650  0810                     	;# 
  2651  0811                     	;# 
  2652  0812                     	;# 
  2653  0813                     	;# 
  2654  0814                     	;# 
  2655  081A                     	;# 
  2656  081A                     	;# 
  2657  081B                     	;# 
  2658  081C                     	;# 
  2659  081C                     	;# 
  2660  081D                     	;# 
  2661  081E                     	;# 
  2662  081F                     	;# 
  2663  088C                     	;# 
  2664  088D                     	;# 
  2665  088E                     	;# 
  2666  088F                     	;# 
  2667  0890                     	;# 
  2668  0891                     	;# 
  2669  0892                     	;# 
  2670  0893                     	;# 
  2671  0895                     	;# 
  2672  0896                     	;# 
  2673  0897                     	;# 
  2674  0898                     	;# 
  2675  0899                     	;# 
  2676  089A                     	;# 
  2677  089B                     	;# 
  2678  090C                     	;# 
  2679  090E                     	;# 
  2680  090F                     	;# 
  2681  091F                     	;# 
  2682  098F                     	;# 
  2683  098F                     	;# 
  2684  0990                     	;# 
  2685  0991                     	;# 
  2686  0992                     	;# 
  2687  0993                     	;# 
  2688  0994                     	;# 
  2689  0995                     	;# 
  2690  0996                     	;# 
  2691  0997                     	;# 
  2692  1E0F                     	;# 
  2693  1E10                     	;# 
  2694  1E11                     	;# 
  2695  1E12                     	;# 
  2696  1E13                     	;# 
  2697  1E14                     	;# 
  2698  1E15                     	;# 
  2699  1E16                     	;# 
  2700  1E17                     	;# 
  2701  1E18                     	;# 
  2702  1E19                     	;# 
  2703  1E1A                     	;# 
  2704  1E1B                     	;# 
  2705  1E1C                     	;# 
  2706  1E1D                     	;# 
  2707  1E1E                     	;# 
  2708  1E1F                     	;# 
  2709  1E20                     	;# 
  2710  1E21                     	;# 
  2711  1E22                     	;# 
  2712  1E23                     	;# 
  2713  1E24                     	;# 
  2714  1E25                     	;# 
  2715  1E26                     	;# 
  2716  1E27                     	;# 
  2717  1E28                     	;# 
  2718  1E29                     	;# 
  2719  1E2A                     	;# 
  2720  1E2B                     	;# 
  2721  1E2C                     	;# 
  2722  1E2D                     	;# 
  2723  1E2E                     	;# 
  2724  1E2F                     	;# 
  2725  1E30                     	;# 
  2726  1E31                     	;# 
  2727  1E32                     	;# 
  2728  1E33                     	;# 
  2729  1E34                     	;# 
  2730  1E35                     	;# 
  2731  1E36                     	;# 
  2732  1E37                     	;# 
  2733  1E8F                     	;# 
  2734  1E90                     	;# 
  2735  1E91                     	;# 
  2736  1E92                     	;# 
  2737  1E93                     	;# 
  2738  1E94                     	;# 
  2739  1E95                     	;# 
  2740  1E96                     	;# 
  2741  1E97                     	;# 
  2742  1E9C                     	;# 
  2743  1E9D                     	;# 
  2744  1E9E                     	;# 
  2745  1EA1                     	;# 
  2746  1EA2                     	;# 
  2747  1EA3                     	;# 
  2748  1EA4                     	;# 
  2749  1EA9                     	;# 
  2750  1EAA                     	;# 
  2751  1EB1                     	;# 
  2752  1EB2                     	;# 
  2753  1EB8                     	;# 
  2754  1EB9                     	;# 
  2755  1EBA                     	;# 
  2756  1EBB                     	;# 
  2757  1EBC                     	;# 
  2758  1EBD                     	;# 
  2759  1EBE                     	;# 
  2760  1EC3                     	;# 
  2761  1EC5                     	;# 
  2762  1EC6                     	;# 
  2763  1EC7                     	;# 
  2764  1EC8                     	;# 
  2765  1EC9                     	;# 
  2766  1ECA                     	;# 
  2767  1ECB                     	;# 
  2768  1ECB                     	;# 
  2769  1ECB                     	;# 
  2770  1ECC                     	;# 
  2771  1ECC                     	;# 
  2772  1ECC                     	;# 
  2773  1F10                     	;# 
  2774  1F11                     	;# 
  2775  1F12                     	;# 
  2776  1F14                     	;# 
  2777  1F15                     	;# 
  2778  1F1C                     	;# 
  2779  1F1D                     	;# 
  2780  1F1E                     	;# 
  2781  1F1F                     	;# 
  2782  1F20                     	;# 
  2783  1F21                     	;# 
  2784  1F22                     	;# 
  2785  1F23                     	;# 
  2786  1F24                     	;# 
  2787  1F25                     	;# 
  2788  1F26                     	;# 
  2789  1F27                     	;# 
  2790  1F38                     	;# 
  2791  1F39                     	;# 
  2792  1F3A                     	;# 
  2793  1F3B                     	;# 
  2794  1F3C                     	;# 
  2795  1F3D                     	;# 
  2796  1F3E                     	;# 
  2797  1F3F                     	;# 
  2798  1F43                     	;# 
  2799  1F44                     	;# 
  2800  1F45                     	;# 
  2801  1F46                     	;# 
  2802  1F47                     	;# 
  2803  1F48                     	;# 
  2804  1F49                     	;# 
  2805  1F4A                     	;# 
  2806  1F4E                     	;# 
  2807  1F4F                     	;# 
  2808  1F50                     	;# 
  2809  1F51                     	;# 
  2810  1F52                     	;# 
  2811  1F53                     	;# 
  2812  1F54                     	;# 
  2813  1F55                     	;# 
  2814  1FE4                     	;# 
  2815  1FE5                     	;# 
  2816  1FE6                     	;# 
  2817  1FE7                     	;# 
  2818  1FE8                     	;# 
  2819  1FE8                     	;# 
  2820  1FE9                     	;# 
  2821  1FEA                     	;# 
  2822  1FEB                     	;# 
  2823  1FED                     	;# 
  2824  1FEE                     	;# 
  2825  1FEF                     	;# 
  2826                           
  2827                           	psect	stringtext1
  2828  0800                     __pstringtext1:	
  2829  0800                     _fsmStateTable:	
  2830  0800  3449               	retlw	low _I2C2_DO_IDLE
  2831  0801  3403               	retlw	high _I2C2_DO_IDLE
  2832  0802  3497               	retlw	low _I2C2_DO_SEND_ADR_READ
  2833  0803  3403               	retlw	high _I2C2_DO_SEND_ADR_READ
  2834  0804  348F               	retlw	low _I2C2_DO_SEND_ADR_WRITE
  2835  0805  3403               	retlw	high _I2C2_DO_SEND_ADR_WRITE
  2836  0806  34AD               	retlw	low _I2C2_DO_TX
  2837  0807  3406               	retlw	high _I2C2_DO_TX
  2838  0808  3413               	retlw	low _I2C2_DO_RX
  2839  0809  3406               	retlw	high _I2C2_DO_RX
  2840  080A  3488               	retlw	low _I2C2_DO_RCEN
  2841  080B  3403               	retlw	high _I2C2_DO_RCEN
  2842  080C  343D               	retlw	low _I2C2_DO_TX_EMPTY
  2843  080D  3405               	retlw	high _I2C2_DO_TX_EMPTY
  2844  080E  344E               	retlw	low _I2C2_DO_SEND_RESTART_READ
  2845  080F  3403               	retlw	high _I2C2_DO_SEND_RESTART_READ
  2846  0810  3453               	retlw	low _I2C2_DO_SEND_RESTART_WRITE
  2847  0811  3403               	retlw	high _I2C2_DO_SEND_RESTART_WRITE
  2848  0812  3458               	retlw	low _I2C2_DO_SEND_RESTART
  2849  0813  3403               	retlw	high _I2C2_DO_SEND_RESTART
  2850  0814  345D               	retlw	low _I2C2_DO_SEND_STOP
  2851  0815  3403               	retlw	high _I2C2_DO_SEND_STOP
  2852  0816  3462               	retlw	low _I2C2_DO_RX_ACK
  2853  0817  3403               	retlw	high _I2C2_DO_RX_ACK
  2854  0818  3467               	retlw	low _I2C2_DO_RX_NACK_STOP
  2855  0819  3403               	retlw	high _I2C2_DO_RX_NACK_STOP
  2856  081A  346C               	retlw	low _I2C2_DO_RX_NACK_RESTART
  2857  081B  3403               	retlw	high _I2C2_DO_RX_NACK_RESTART
  2858  081C  3471               	retlw	low _I2C2_DO_RESET
  2859  081D  3403               	retlw	high _I2C2_DO_RESET
  2860  081E  3411               	retlw	low _I2C2_DO_ADDRESS_NACK
  2861  081F  3405               	retlw	high _I2C2_DO_ADDRESS_NACK
  2862  0820                     __end_of_fsmStateTable:	
  2863  000C                     _PORTA	set	12
  2864  0014                     _TRISC	set	20
  2865  0013                     _TRISB	set	19
  2866  0012                     _TRISA	set	18
  2867  001A                     _LATC	set	26
  2868  0019                     _LATB	set	25
  2869  0018                     _LATA	set	24
  2870  0062                     _RA2	set	98
  2871  0199                     _SSP2STATbits	set	409
  2872  019B                     _SSP2CON2bits	set	411
  2873  0196                     _SSP2BUF	set	406
  2874  019A                     _SSP2CON1bits	set	410
  2875  0197                     _SSP2ADD	set	407
  2876  019B                     _SSP2CON2	set	411
  2877  019A                     _SSP2CON1	set	410
  2878  0199                     _SSP2STAT	set	409
  2879  0719                     _PIE3bits	set	1817
  2880  070F                     _PIR3bits	set	1807
  2881  079D                     _PMD7	set	1949
  2882  079C                     _PMD6	set	1948
  2883  079B                     _PMD5	set	1947
  2884  079A                     _PMD4	set	1946
  2885  0799                     _PMD3	set	1945
  2886  0798                     _PMD2	set	1944
  2887  0797                     _PMD1	set	1943
  2888  0796                     _PMD0	set	1942
  2889  0892                     _OSCTUNE	set	2194
  2890  0893                     _OSCFRQ	set	2195
  2891  0891                     _OSCEN	set	2193
  2892  088F                     _OSCCON3	set	2191
  2893  088D                     _OSCCON1	set	2189
  2894  1EC8                     _SSP2CLKPPS	set	7880
  2895  1EC9                     _SSP2DATPPS	set	7881
  2896  1F1D                     _RB5PPS	set	7965
  2897  1F1F                     _RB7PPS	set	7967
  2898  1F52                     _INLVLC	set	8018
  2899  1F47                     _INLVLB	set	8007
  2900  1F3C                     _INLVLA	set	7996
  2901  1F51                     _SLRCONC	set	8017
  2902  1F46                     _SLRCONB	set	8006
  2903  1F3B                     _SLRCONA	set	7995
  2904  1F50                     _ODCONC	set	8016
  2905  1F45                     _ODCONB	set	8005
  2906  1F3A                     _ODCONA	set	7994
  2907  1F4F                     _WPUC	set	8015
  2908  1F39                     _WPUA	set	7993
  2909  1F44                     _WPUB	set	8004
  2910  1F38                     _ANSELA	set	7992
  2911  1F43                     _ANSELB	set	8003
  2912  1F4E                     _ANSELC	set	8014
  2913                           
  2914                           ; #config settings
  2915  0000                     
  2916                           	psect	cinit
  2917  07F5                     start_initialization:	
  2918  07F5                     __initialization:	
  2919                           
  2920                           ; Clear objects allocated to BANK0
  2921  07F5  3020               	movlw	low __pbssBANK0
  2922  07F6  0084               	movwf	4
  2923  07F7  3000               	movlw	high __pbssBANK0
  2924  07F8  0085               	movwf	5
  2925  07F9  301E               	movlw	30
  2926  07FA  3183  2382  3187   	fcall	clear_ram0
  2927  07FD                     end_of_initialization:	
  2928                           ;End of C runtime variable initialization code
  2929                           
  2930  07FD                     __end_of__initialization:	
  2931  07FD  0140               	movlb	0
  2932  07FE  3184  2CBD         	ljmp	_main	;jump to C main() function
  2933                           
  2934                           	psect	bssBANK0
  2935  0020                     __pbssBANK0:	
  2936  0020                     _I2C2_Status:	
  2937  0020                     	ds	29
  2938  003D                     _i:	
  2939  003D                     	ds	1
  2940                           
  2941                           	psect	clrtext
  2942  0382                     clear_ram0:	
  2943                           ;	Called with FSR0 containing the base address, and
  2944                           ;	WREG with the size to clear
  2945                           
  2946  0382  0064               	clrwdt	;clear the watchdog before getting into this loop
  2947  0383                     clrloop0:	
  2948  0383  0180               	clrf	0	;clear RAM location pointed to by FSR
  2949  0384  3101               	addfsr 0,1
  2950  0385  0B89               	decfsz	9,f	;Have we reached the end of clearing yet?
  2951  0386  2B83               	goto	clrloop0	;have we reached the end yet?
  2952  0387  3400               	retlw	0	;all done for this memory range, return
  2953                           
  2954                           	psect	cstackCOMMON
  2955  0070                     __pcstackCOMMON:	
  2956  0070                     ?_I2C2_Open:	
  2957  0070                     ??_I2C2_Open:	
  2958                           ; 1 bytes @ 0x0
  2959                           
  2960  0070                     ?_I2C2_SetBuffer:	
  2961                           ; 1 bytes @ 0x0
  2962                           
  2963  0070                     ?_I2C2_Close:	
  2964                           ; 1 bytes @ 0x0
  2965                           
  2966  0070                     ??_I2C2_Close:	
  2967                           ; 1 bytes @ 0x0
  2968                           
  2969  0070                     ?_PMD_Initialize:	
  2970                           ; 1 bytes @ 0x0
  2971                           
  2972  0070                     ??_PMD_Initialize:	
  2973                           ; 1 bytes @ 0x0
  2974                           
  2975  0070                     ?_I2C2_Initialize:	
  2976                           ; 1 bytes @ 0x0
  2977                           
  2978  0070                     ??_I2C2_Initialize:	
  2979                           ; 1 bytes @ 0x0
  2980                           
  2981  0070                     ?_PIN_MANAGER_Initialize:	
  2982                           ; 1 bytes @ 0x0
  2983                           
  2984  0070                     ??_PIN_MANAGER_Initialize:	
  2985                           ; 1 bytes @ 0x0
  2986                           
  2987  0070                     ?_OSCILLATOR_Initialize:	
  2988                           ; 1 bytes @ 0x0
  2989                           
  2990  0070                     ??_OSCILLATOR_Initialize:	
  2991                           ; 1 bytes @ 0x0
  2992                           
  2993  0070                     ?_I2C2_DO_IDLE:	
  2994                           ; 1 bytes @ 0x0
  2995                           
  2996  0070                     ??_I2C2_DO_IDLE:	
  2997                           ; 1 bytes @ 0x0
  2998                           
  2999  0070                     ?_I2C2_DO_SEND_ADR_READ:	
  3000                           ; 1 bytes @ 0x0
  3001                           
  3002  0070                     ??_I2C2_DO_SEND_ADR_READ:	
  3003                           ; 1 bytes @ 0x0
  3004                           
  3005  0070                     ?_I2C2_DO_SEND_ADR_WRITE:	
  3006                           ; 1 bytes @ 0x0
  3007                           
  3008  0070                     ?_I2C2_DO_TX:	
  3009                           ; 1 bytes @ 0x0
  3010                           
  3011  0070                     ?_I2C2_DO_RX:	
  3012                           ; 1 bytes @ 0x0
  3013                           
  3014  0070                     ?_I2C2_DO_RCEN:	
  3015                           ; 1 bytes @ 0x0
  3016                           
  3017  0070                     ??_I2C2_DO_RCEN:	
  3018                           ; 1 bytes @ 0x0
  3019                           
  3020  0070                     ?_I2C2_DO_TX_EMPTY:	
  3021                           ; 1 bytes @ 0x0
  3022                           
  3023  0070                     ?_I2C2_DO_SEND_RESTART_READ:	
  3024                           ; 1 bytes @ 0x0
  3025                           
  3026  0070                     ??_I2C2_DO_SEND_RESTART_READ:	
  3027                           ; 1 bytes @ 0x0
  3028                           
  3029  0070                     ?_I2C2_DO_SEND_RESTART_WRITE:	
  3030                           ; 1 bytes @ 0x0
  3031                           
  3032  0070                     ??_I2C2_DO_SEND_RESTART_WRITE:	
  3033                           ; 1 bytes @ 0x0
  3034                           
  3035  0070                     ?_I2C2_DO_SEND_RESTART:	
  3036                           ; 1 bytes @ 0x0
  3037                           
  3038  0070                     ??_I2C2_DO_SEND_RESTART:	
  3039                           ; 1 bytes @ 0x0
  3040                           
  3041  0070                     ?_I2C2_DO_SEND_STOP:	
  3042                           ; 1 bytes @ 0x0
  3043                           
  3044  0070                     ??_I2C2_DO_SEND_STOP:	
  3045                           ; 1 bytes @ 0x0
  3046                           
  3047  0070                     ?_I2C2_DO_RX_ACK:	
  3048                           ; 1 bytes @ 0x0
  3049                           
  3050  0070                     ??_I2C2_DO_RX_ACK:	
  3051                           ; 1 bytes @ 0x0
  3052                           
  3053  0070                     ?_I2C2_DO_RX_NACK_STOP:	
  3054                           ; 1 bytes @ 0x0
  3055                           
  3056  0070                     ??_I2C2_DO_RX_NACK_STOP:	
  3057                           ; 1 bytes @ 0x0
  3058                           
  3059  0070                     ?_I2C2_DO_RX_NACK_RESTART:	
  3060                           ; 1 bytes @ 0x0
  3061                           
  3062  0070                     ??_I2C2_DO_RX_NACK_RESTART:	
  3063                           ; 1 bytes @ 0x0
  3064                           
  3065  0070                     ?_I2C2_DO_RESET:	
  3066                           ; 1 bytes @ 0x0
  3067                           
  3068  0070                     ??_I2C2_DO_RESET:	
  3069                           ; 1 bytes @ 0x0
  3070                           
  3071  0070                     ?_I2C2_DO_ADDRESS_NACK:	
  3072                           ; 1 bytes @ 0x0
  3073                           
  3074  0070                     ?_I2C2_MasterClearIrq:	
  3075                           ; 1 bytes @ 0x0
  3076                           
  3077  0070                     ??_I2C2_MasterClearIrq:	
  3078                           ; 1 bytes @ 0x0
  3079                           
  3080  0070                     ?_I2C2_MasterOpen:	
  3081                           ; 1 bytes @ 0x0
  3082                           
  3083  0070                     ??_I2C2_MasterOpen:	
  3084                           ; 1 bytes @ 0x0
  3085                           
  3086  0070                     ?_I2C2_MasterDisableIrq:	
  3087                           ; 1 bytes @ 0x0
  3088                           
  3089  0070                     ??_I2C2_MasterDisableIrq:	
  3090                           ; 1 bytes @ 0x0
  3091                           
  3092  0070                     ?_I2C2_MasterClose:	
  3093                           ; 1 bytes @ 0x0
  3094                           
  3095  0070                     ??_I2C2_MasterClose:	
  3096                           ; 1 bytes @ 0x0
  3097                           
  3098  0070                     ?_I2C2_MasterStart:	
  3099                           ; 1 bytes @ 0x0
  3100                           
  3101  0070                     ??_I2C2_MasterStart:	
  3102                           ; 1 bytes @ 0x0
  3103                           
  3104  0070                     ?_I2C2_Poller:	
  3105                           ; 1 bytes @ 0x0
  3106                           
  3107  0070                     ?_I2C2_SetCallback:	
  3108                           ; 1 bytes @ 0x0
  3109                           
  3110  0070                     ?_I2C2_MasterWaitForEvent:	
  3111                           ; 1 bytes @ 0x0
  3112                           
  3113  0070                     ??_I2C2_MasterWaitForEvent:	
  3114                           ; 1 bytes @ 0x0
  3115                           
  3116  0070                     ?_I2C2_MasterFsm:	
  3117                           ; 1 bytes @ 0x0
  3118                           
  3119  0070                     ?_I2C2_MasterIsNack:	
  3120                           ; 1 bytes @ 0x0
  3121                           
  3122  0070                     ??_I2C2_MasterIsNack:	
  3123                           ; 1 bytes @ 0x0
  3124                           
  3125  0070                     ?_I2C2_MasterSendTxData:	
  3126                           ; 1 bytes @ 0x0
  3127                           
  3128  0070                     ??_I2C2_MasterSendTxData:	
  3129                           ; 1 bytes @ 0x0
  3130                           
  3131  0070                     ?_I2C2_MasterGetRxData:	
  3132                           ; 1 bytes @ 0x0
  3133                           
  3134  0070                     ??_I2C2_MasterGetRxData:	
  3135                           ; 1 bytes @ 0x0
  3136                           
  3137  0070                     ?_I2C2_MasterSendAck:	
  3138                           ; 1 bytes @ 0x0
  3139                           
  3140  0070                     ??_I2C2_MasterSendAck:	
  3141                           ; 1 bytes @ 0x0
  3142                           
  3143  0070                     ?_I2C2_MasterStartRx:	
  3144                           ; 1 bytes @ 0x0
  3145                           
  3146  0070                     ??_I2C2_MasterStartRx:	
  3147                           ; 1 bytes @ 0x0
  3148                           
  3149  0070                     ?_I2C2_MasterSetIrq:	
  3150                           ; 1 bytes @ 0x0
  3151                           
  3152  0070                     ??_I2C2_MasterSetIrq:	
  3153                           ; 1 bytes @ 0x0
  3154                           
  3155  0070                     ?_I2C2_MasterEnableRestart:	
  3156                           ; 1 bytes @ 0x0
  3157                           
  3158  0070                     ??_I2C2_MasterEnableRestart:	
  3159                           ; 1 bytes @ 0x0
  3160                           
  3161  0070                     ?_I2C2_MasterStop:	
  3162                           ; 1 bytes @ 0x0
  3163                           
  3164  0070                     ??_I2C2_MasterStop:	
  3165                           ; 1 bytes @ 0x0
  3166                           
  3167  0070                     ?_I2C2_MasterSendNack:	
  3168                           ; 1 bytes @ 0x0
  3169                           
  3170  0070                     ??_I2C2_MasterSendNack:	
  3171                           ; 1 bytes @ 0x0
  3172                           
  3173  0070                     ?_SYSTEM_Initialize:	
  3174                           ; 1 bytes @ 0x0
  3175                           
  3176  0070                     ??_SYSTEM_Initialize:	
  3177                           ; 1 bytes @ 0x0
  3178                           
  3179  0070                     ?_I2C2_MasterOperation:	
  3180                           ; 1 bytes @ 0x0
  3181                           
  3182  0070                     ?_main:	
  3183                           ; 1 bytes @ 0x0
  3184                           
  3185  0070                     ?___awdiv:	
  3186                           ; 1 bytes @ 0x0
  3187                           
  3188  0070                     I2C2_MasterSendTxData@data:	
  3189                           ; 2 bytes @ 0x0
  3190                           
  3191  0070                     I2C2_SetBuffer@bufferSize:	
  3192                           ; 1 bytes @ 0x0
  3193                           
  3194  0070                     I2C2_SetCallback@cb:	
  3195                           ; 2 bytes @ 0x0
  3196                           
  3197  0070                     ___awdiv@divisor:	
  3198                           ; 2 bytes @ 0x0
  3199                           
  3200                           
  3201                           ; 2 bytes @ 0x0
  3202  0070                     	ds	1
  3203  0071                     ??_I2C2_DO_SEND_ADR_WRITE:	
  3204  0071                     I2C2_Open@address:	
  3205                           ; 1 bytes @ 0x1
  3206                           
  3207  0071                     I2C2_Close@returnValue:	
  3208                           ; 1 bytes @ 0x1
  3209                           
  3210                           
  3211                           ; 1 bytes @ 0x1
  3212  0071                     	ds	1
  3213  0072                     ??_I2C2_SetBuffer:	
  3214  0072                     I2C2_Open@returnValue:	
  3215                           ; 1 bytes @ 0x2
  3216                           
  3217  0072                     I2C2_SetCallback@ptr:	
  3218                           ; 1 bytes @ 0x2
  3219                           
  3220  0072                     ___awdiv@dividend:	
  3221                           ; 1 bytes @ 0x2
  3222                           
  3223                           
  3224                           ; 2 bytes @ 0x2
  3225  0072                     	ds	1
  3226  0073                     ??_I2C2_SetCallback:	
  3227  0073                     I2C2_SetBuffer@buffer:	
  3228                           ; 1 bytes @ 0x3
  3229                           
  3230                           
  3231                           ; 1 bytes @ 0x3
  3232  0073                     	ds	1
  3233  0074                     ??___awdiv:	
  3234  0074                     I2C2_SetCallback@idx:	
  3235                           ; 1 bytes @ 0x4
  3236                           
  3237                           
  3238                           ; 1 bytes @ 0x4
  3239  0074                     	ds	1
  3240  0075                     ?_I2C2_SetDataCompleteCallback:	
  3241  0075                     ___awdiv@counter:	
  3242                           ; 1 bytes @ 0x5
  3243                           
  3244  0075                     I2C2_SetDataCompleteCallback@cb:	
  3245                           ; 1 bytes @ 0x5
  3246                           
  3247                           
  3248                           ; 2 bytes @ 0x5
  3249  0075                     	ds	1
  3250  0076                     ___awdiv@sign:	
  3251                           
  3252                           ; 1 bytes @ 0x6
  3253  0076                     	ds	1
  3254  0077                     I2C2_SetDataCompleteCallback@ptr:	
  3255  0077                     ___awdiv@quotient:	
  3256                           ; 1 bytes @ 0x7
  3257                           
  3258                           
  3259                           ; 2 bytes @ 0x7
  3260  0077                     	ds	1
  3261  0078                     ??_I2C2_SetDataCompleteCallback:	
  3262                           
  3263                           ; 1 bytes @ 0x8
  3264  0078                     	ds	1
  3265  0079                     ?_rd1RegCompleteHandler:	
  3266  0079                     ?_rd2RegCompleteHandler:	
  3267                           ; 1 bytes @ 0x9
  3268                           
  3269  0079                     ?_wr1RegCompleteHandler:	
  3270                           ; 1 bytes @ 0x9
  3271                           
  3272  0079                     ?_wr2RegCompleteHandler:	
  3273                           ; 1 bytes @ 0x9
  3274                           
  3275  0079                     ?_rdBlkRegCompleteHandler:	
  3276                           ; 1 bytes @ 0x9
  3277                           
  3278  0079                     ?_I2C2_CallbackReturnStop:	
  3279                           ; 1 bytes @ 0x9
  3280                           
  3281  0079                     ?_I2C2_CallbackReturnReset:	
  3282                           ; 1 bytes @ 0x9
  3283                           
  3284  0079                     ?___awmod:	
  3285                           ; 1 bytes @ 0x9
  3286                           
  3287  0079                     rd1RegCompleteHandler@ptr:	
  3288                           ; 2 bytes @ 0x9
  3289                           
  3290  0079                     rd2RegCompleteHandler@ptr:	
  3291                           ; 1 bytes @ 0x9
  3292                           
  3293  0079                     wr1RegCompleteHandler@ptr:	
  3294                           ; 1 bytes @ 0x9
  3295                           
  3296  0079                     wr2RegCompleteHandler@ptr:	
  3297                           ; 1 bytes @ 0x9
  3298                           
  3299  0079                     rdBlkRegCompleteHandler@ptr:	
  3300                           ; 1 bytes @ 0x9
  3301                           
  3302  0079                     I2C2_CallbackReturnStop@funPtr:	
  3303                           ; 1 bytes @ 0x9
  3304                           
  3305  0079                     I2C2_CallbackReturnReset@funPtr:	
  3306                           ; 1 bytes @ 0x9
  3307                           
  3308  0079                     ___awmod@divisor:	
  3309                           ; 1 bytes @ 0x9
  3310                           
  3311                           
  3312                           ; 2 bytes @ 0x9
  3313  0079                     	ds	1
  3314  007A                     ??_rd1RegCompleteHandler:	
  3315  007A                     ??_rd2RegCompleteHandler:	
  3316                           ; 1 bytes @ 0xA
  3317                           
  3318  007A                     ??_wr1RegCompleteHandler:	
  3319                           ; 1 bytes @ 0xA
  3320                           
  3321  007A                     ??_wr2RegCompleteHandler:	
  3322                           ; 1 bytes @ 0xA
  3323                           
  3324  007A                     ??_rdBlkRegCompleteHandler:	
  3325                           ; 1 bytes @ 0xA
  3326                           
  3327  007A                     ??_I2C2_DO_TX:	
  3328                           ; 1 bytes @ 0xA
  3329                           
  3330  007A                     ??_I2C2_DO_RX:	
  3331                           ; 1 bytes @ 0xA
  3332                           
  3333  007A                     ??_I2C2_DO_TX_EMPTY:	
  3334                           ; 1 bytes @ 0xA
  3335                           
  3336  007A                     ??_I2C2_DO_ADDRESS_NACK:	
  3337                           ; 1 bytes @ 0xA
  3338                           
  3339  007A                     ??_I2C2_CallbackReturnStop:	
  3340                           ; 1 bytes @ 0xA
  3341                           
  3342  007A                     ??_I2C2_CallbackReturnReset:	
  3343                           ; 1 bytes @ 0xA
  3344                           
  3345                           
  3346                           ; 1 bytes @ 0xA
  3347  007A                     	ds	1
  3348  007B                     ___awmod@dividend:	
  3349                           
  3350                           ; 2 bytes @ 0xB
  3351  007B                     	ds	2
  3352  007D                     ??_I2C2_Poller:	
  3353  007D                     ??_I2C2_MasterOperation:	
  3354                           ; 1 bytes @ 0xD
  3355                           
  3356  007D                     ??___awmod:	
  3357                           ; 1 bytes @ 0xD
  3358                           
  3359                           
  3360                           ; 1 bytes @ 0xD
  3361  007D                     	ds	1
  3362                           
  3363                           	psect	cstackBANK0
  3364  003E                     __pcstackBANK0:	
  3365  003E                     ??_I2C2_MasterFsm:	
  3366  003E                     ___awmod@counter:	
  3367                           ; 1 bytes @ 0x0
  3368                           
  3369                           
  3370                           ; 1 bytes @ 0x0
  3371  003E                     	ds	1
  3372  003F                     ___awmod@sign:	
  3373                           
  3374                           ; 1 bytes @ 0x1
  3375  003F                     	ds	2
  3376  0041                     I2C2_MasterOperation@read:	
  3377                           
  3378                           ; 1 bytes @ 0x3
  3379  0041                     	ds	1
  3380  0042                     I2C2_MasterOperation@returnValue:	
  3381                           
  3382                           ; 1 bytes @ 0x4
  3383  0042                     	ds	1
  3384  0043                     ?_SendI2CData:	
  3385  0043                     SendI2CData@_dataSize:	
  3386                           ; 1 bytes @ 0x5
  3387                           
  3388                           
  3389                           ; 2 bytes @ 0x5
  3390  0043                     	ds	2
  3391  0045                     ??_SendI2CData:	
  3392                           
  3393                           ; 1 bytes @ 0x7
  3394  0045                     	ds	1
  3395  0046                     SendI2CData@i:	
  3396                           
  3397                           ; 1 bytes @ 0x8
  3398  0046                     	ds	1
  3399  0047                     SendI2CData@_data:	
  3400                           
  3401                           ; 1 bytes @ 0x9
  3402  0047                     	ds	1
  3403  0048                     SendI2CData@result:	
  3404                           
  3405                           ; 1 bytes @ 0xA
  3406  0048                     	ds	1
  3407  0049                     ?_DispWriteValue:	
  3408  0049                     DispWriteValue@_val:	
  3409                           ; 1 bytes @ 0xB
  3410                           
  3411                           
  3412                           ; 2 bytes @ 0xB
  3413  0049                     	ds	2
  3414  004B                     ??_DispWriteValue:	
  3415                           
  3416                           ; 1 bytes @ 0xD
  3417  004B                     	ds	3
  3418  004E                     DispWriteValue@packets:	
  3419                           
  3420                           ; 8 bytes @ 0x10
  3421  004E                     	ds	8
  3422  0056                     ??_main:	
  3423                           
  3424                           ; 1 bytes @ 0x18
  3425  0056                     	ds	2
  3426                           
  3427                           	psect	maintext
  3428  04BD                     __pmaintext:	
  3429 ;;
  3430 ;;Main: autosize = 0, tempsize = 2, incstack = 0, save=0
  3431 ;;
  3432 ;; *************** function _main *****************
  3433 ;; Defined at:
  3434 ;;		line 7 in file "main.c"
  3435 ;; Parameters:    Size  Location     Type
  3436 ;;		None
  3437 ;; Auto vars:     Size  Location     Type
  3438 ;;		None
  3439 ;; Return value:  Size  Location     Type
  3440 ;;                  1    wreg      void 
  3441 ;; Registers used:
  3442 ;;		wreg, fsr0l, fsr0h, fsr1l, fsr1h, status,2, status,0, pclath, cstack
  3443 ;; Tracked objects:
  3444 ;;		On entry : B3F/0
  3445 ;;		On exit  : 0/0
  3446 ;;		Unchanged: 0/0
  3447 ;; Data sizes:     COMMON   BANK0   BANK1   BANK2   BANK3   BANK4   BANK5   BANK6   BANK7   BANK8   BANK9  BANK10  BANK1
      +1  BANK12  BANK13  BANK14  BANK15  BANK16  BANK17  BANK18  BANK19  BANK20  BANK21  BANK22  BANK23  BANK24  BANK25
  3448 ;;      Params:         0       0       0       0       0       0       0       0       0       0       0       0       
      +0       0       0       0       0       0       0       0       0       0       0       0       0       0       0
  3449 ;;      Locals:         0       0       0       0       0       0       0       0       0       0       0       0       
      +0       0       0       0       0       0       0       0       0       0       0       0       0       0       0
  3450 ;;      Temps:          0       2       0       0       0       0       0       0       0       0       0       0       
      +0       0       0       0       0       0       0       0       0       0       0       0       0       0       0
  3451 ;;      Totals:         0       2       0       0       0       0       0       0       0       0       0       0       
      +0       0       0       0       0       0       0       0       0       0       0       0       0       0       0
  3452 ;;Total ram usage:        2 bytes
  3453 ;; Hardware stack levels required when called:    9
  3454 ;; This function calls:
  3455 ;;		_DispWriteValue
  3456 ;;		_SYSTEM_Initialize
  3457 ;; This function is called by:
  3458 ;;		Startup code after reset
  3459 ;; This function uses a non-reentrant model
  3460 ;;
  3461                           
  3462                           
  3463                           ;psect for function _main
  3464  04BD                     _main:	
  3465  04BD                     l2721:	
  3466                           ;incstack = 0
  3467                           ; Regs used in _main: [wreg-fsr1h+status,2+status,0+pclath+cstack]
  3468                           
  3469                           
  3470                           ;main.c: 10:     SYSTEM_Initialize();
  3471  04BD  3183  23E3  3184   	fcall	_SYSTEM_Initialize
  3472  04C0                     l2723:	
  3473                           
  3474                           ;main.c: 27:     PORTA = 0x0;
  3475  04C0  0140               	movlb	0	; select bank0
  3476  04C1  018C               	clrf	12	;volatile
  3477  04C2                     l2725:	
  3478                           
  3479                           ;main.c: 28:     TRISA = 0x0;
  3480  04C2  0192               	clrf	18	;volatile
  3481  04C3                     l2727:	
  3482                           
  3483                           ;main.c: 32:     {;main.c: 33:         RA2 = ((i++) % 2);
  3484  04C3  0140               	movlb	0	; select bank0
  3485  04C4  183D               	btfsc	_i,0
  3486  04C5  2CC7               	goto	u1151
  3487  04C6  2CCA               	goto	u1150
  3488  04C7                     u1151:	
  3489  04C7  0140               	movlb	0	; select bank0
  3490  04C8  150C               	bsf	12,2	;volatile
  3491  04C9  2CCC               	goto	u1164
  3492  04CA                     u1150:	
  3493  04CA  0140               	movlb	0	; select bank0
  3494  04CB  110C               	bcf	12,2	;volatile
  3495  04CC                     u1164:	
  3496  04CC                     l2729:	
  3497  04CC  3001               	movlw	1
  3498  04CD  00D6               	movwf	??_main
  3499  04CE  0856               	movf	??_main,w
  3500  04CF  07BD               	addwf	_i,f
  3501  04D0                     l2731:	
  3502                           
  3503                           ;main.c: 34:         DispWriteValue(7777);
  3504  04D0  3061               	movlw	97
  3505  04D1  00C9               	movwf	DispWriteValue@_val
  3506  04D2  301E               	movlw	30
  3507  04D3  00CA               	movwf	DispWriteValue@_val+1
  3508  04D4  3187  2761  3184   	fcall	_DispWriteValue
  3509  04D7                     l2733:	
  3510                           
  3511                           ;main.c: 36:         _delay((unsigned long)((200)*(8000000/4000.0)));
  3512  04D7  3003               	movlw	3
  3513  04D8  0140               	movlb	0	; select bank0
  3514  04D9  00D7               	movwf	??_main+1
  3515  04DA  3008               	movlw	8
  3516  04DB  00D6               	movwf	??_main
  3517  04DC  3077               	movlw	119
  3518  04DD                     u1177:	
  3519  04DD  0B89               	decfsz	9,f
  3520  04DE  2CDD               	goto	u1177
  3521  04DF  0BD6               	decfsz	??_main,f
  3522  04E0  2CDD               	goto	u1177
  3523  04E1  0BD7               	decfsz	??_main+1,f
  3524  04E2  2CDD               	goto	u1177
  3525  04E3  2CC3               	goto	l2727
  3526  04E4  3180  2802         	ljmp	start
  3527  04E6                     __end_of_main:	
  3528                           
  3529                           	psect	text1
  3530  03E3                     __ptext1:	
  3531 ;; *************** function _SYSTEM_Initialize *****************
  3532 ;; Defined at:
  3533 ;;		line 50 in file "mcc_generated_files/mcc.c"
  3534 ;; Parameters:    Size  Location     Type
  3535 ;;		None
  3536 ;; Auto vars:     Size  Location     Type
  3537 ;;		None
  3538 ;; Return value:  Size  Location     Type
  3539 ;;                  1    wreg      void 
  3540 ;; Registers used:
  3541 ;;		wreg, status,2, status,0, pclath, cstack
  3542 ;; Tracked objects:
  3543 ;;		On entry : 0/0
  3544 ;;		On exit  : 0/0
  3545 ;;		Unchanged: 0/0
  3546 ;; Data sizes:     COMMON   BANK0   BANK1   BANK2   BANK3   BANK4   BANK5   BANK6   BANK7   BANK8   BANK9  BANK10  BANK1
      +1  BANK12  BANK13  BANK14  BANK15  BANK16  BANK17  BANK18  BANK19  BANK20  BANK21  BANK22  BANK23  BANK24  BANK25
  3547 ;;      Params:         0       0       0       0       0       0       0       0       0       0       0       0       
      +0       0       0       0       0       0       0       0       0       0       0       0       0       0       0
  3548 ;;      Locals:         0       0       0       0       0       0       0       0       0       0       0       0       
      +0       0       0       0       0       0       0       0       0       0       0       0       0       0       0
  3549 ;;      Temps:          0       0       0       0       0       0       0       0       0       0       0       0       
      +0       0       0       0       0       0       0       0       0       0       0       0       0       0       0
  3550 ;;      Totals:         0       0       0       0       0       0       0       0       0       0       0       0       
      +0       0       0       0       0       0       0       0       0       0       0       0       0       0       0
  3551 ;;Total ram usage:        0 bytes
  3552 ;; Hardware stack levels used:    1
  3553 ;; Hardware stack levels required when called:    1
  3554 ;; This function calls:
  3555 ;;		_I2C2_Initialize
  3556 ;;		_OSCILLATOR_Initialize
  3557 ;;		_PIN_MANAGER_Initialize
  3558 ;;		_PMD_Initialize
  3559 ;; This function is called by:
  3560 ;;		_main
  3561 ;; This function uses a non-reentrant model
  3562 ;;
  3563                           
  3564                           
  3565                           ;psect for function _SYSTEM_Initialize
  3566  03E3                     _SYSTEM_Initialize:	
  3567  03E3                     l2559:	
  3568                           ;incstack = 0
  3569                           ; Regs used in _SYSTEM_Initialize: [wreg+status,2+status,0+pclath+cstack]
  3570                           
  3571                           
  3572                           ;mcc_generated_files/mcc.c: 52:     PMD_Initialize();
  3573  03E3  3183  23B2  3183   	fcall	_PMD_Initialize
  3574  03E6                     l2561:	
  3575                           
  3576                           ;mcc_generated_files/mcc.c: 53:     I2C2_Initialize();
  3577  03E6  3183  23A0  3183   	fcall	_I2C2_Initialize
  3578  03E9                     l2563:	
  3579                           
  3580                           ;mcc_generated_files/mcc.c: 54:     PIN_MANAGER_Initialize();
  3581  03E9  3185  256C  3183   	fcall	_PIN_MANAGER_Initialize
  3582  03EC                     l2565:	
  3583                           
  3584                           ;mcc_generated_files/mcc.c: 55:     OSCILLATOR_Initialize();
  3585  03EC  3183  23A9  3183   	fcall	_OSCILLATOR_Initialize
  3586  03EF                     l139:	
  3587  03EF  0008               	return
  3588  03F0                     __end_of_SYSTEM_Initialize:	
  3589                           
  3590                           	psect	text2
  3591  03B2                     __ptext2:	
  3592 ;; *************** function _PMD_Initialize *****************
  3593 ;; Defined at:
  3594 ;;		line 72 in file "mcc_generated_files/mcc.c"
  3595 ;; Parameters:    Size  Location     Type
  3596 ;;		None
  3597 ;; Auto vars:     Size  Location     Type
  3598 ;;		None
  3599 ;; Return value:  Size  Location     Type
  3600 ;;                  1    wreg      void 
  3601 ;; Registers used:
  3602 ;;		status,2
  3603 ;; Tracked objects:
  3604 ;;		On entry : 0/0
  3605 ;;		On exit  : 0/0
  3606 ;;		Unchanged: 0/0
  3607 ;; Data sizes:     COMMON   BANK0   BANK1   BANK2   BANK3   BANK4   BANK5   BANK6   BANK7   BANK8   BANK9  BANK10  BANK1
      +1  BANK12  BANK13  BANK14  BANK15  BANK16  BANK17  BANK18  BANK19  BANK20  BANK21  BANK22  BANK23  BANK24  BANK25
  3608 ;;      Params:         0       0       0       0       0       0       0       0       0       0       0       0       
      +0       0       0       0       0       0       0       0       0       0       0       0       0       0       0
  3609 ;;      Locals:         0       0       0       0       0       0       0       0       0       0       0       0       
      +0       0       0       0       0       0       0       0       0       0       0       0       0       0       0
  3610 ;;      Temps:          0       0       0       0       0       0       0       0       0       0       0       0       
      +0       0       0       0       0       0       0       0       0       0       0       0       0       0       0
  3611 ;;      Totals:         0       0       0       0       0       0       0       0       0       0       0       0       
      +0       0       0       0       0       0       0       0       0       0       0       0       0       0       0
  3612 ;;Total ram usage:        0 bytes
  3613 ;; Hardware stack levels used:    1
  3614 ;; This function calls:
  3615 ;;		Nothing
  3616 ;; This function is called by:
  3617 ;;		_SYSTEM_Initialize
  3618 ;; This function uses a non-reentrant model
  3619 ;;
  3620                           
  3621                           
  3622                           ;psect for function _PMD_Initialize
  3623  03B2                     _PMD_Initialize:	
  3624  03B2                     l2397:	
  3625                           ;incstack = 0
  3626                           ; Regs used in _PMD_Initialize: [status,2]
  3627                           
  3628                           
  3629                           ;mcc_generated_files/mcc.c: 75:     PMD0 = 0x00;
  3630  03B2  014F               	movlb	15	; select bank15
  3631  03B3  0196               	clrf	22	;volatile
  3632                           
  3633                           ;mcc_generated_files/mcc.c: 77:     PMD1 = 0x00;
  3634  03B4  0197               	clrf	23	;volatile
  3635                           
  3636                           ;mcc_generated_files/mcc.c: 79:     PMD2 = 0x00;
  3637  03B5  0198               	clrf	24	;volatile
  3638                           
  3639                           ;mcc_generated_files/mcc.c: 81:     PMD3 = 0x00;
  3640  03B6  0199               	clrf	25	;volatile
  3641                           
  3642                           ;mcc_generated_files/mcc.c: 83:     PMD4 = 0x00;
  3643  03B7  019A               	clrf	26	;volatile
  3644                           
  3645                           ;mcc_generated_files/mcc.c: 85:     PMD5 = 0x00;
  3646  03B8  019B               	clrf	27	;volatile
  3647                           
  3648                           ;mcc_generated_files/mcc.c: 87:     PMD6 = 0x00;
  3649  03B9  019C               	clrf	28	;volatile
  3650                           
  3651                           ;mcc_generated_files/mcc.c: 89:     PMD7 = 0x00;
  3652  03BA  019D               	clrf	29	;volatile
  3653  03BB                     l145:	
  3654  03BB  0008               	return
  3655  03BC                     __end_of_PMD_Initialize:	
  3656                           
  3657                           	psect	text3
  3658  056C                     __ptext3:	
  3659 ;; *************** function _PIN_MANAGER_Initialize *****************
  3660 ;; Defined at:
  3661 ;;		line 55 in file "mcc_generated_files/pin_manager.c"
  3662 ;; Parameters:    Size  Location     Type
  3663 ;;		None
  3664 ;; Auto vars:     Size  Location     Type
  3665 ;;		None
  3666 ;; Return value:  Size  Location     Type
  3667 ;;                  1    wreg      void 
  3668 ;; Registers used:
  3669 ;;		wreg, status,2
  3670 ;; Tracked objects:
  3671 ;;		On entry : 0/0
  3672 ;;		On exit  : 0/0
  3673 ;;		Unchanged: 0/0
  3674 ;; Data sizes:     COMMON   BANK0   BANK1   BANK2   BANK3   BANK4   BANK5   BANK6   BANK7   BANK8   BANK9  BANK10  BANK1
      +1  BANK12  BANK13  BANK14  BANK15  BANK16  BANK17  BANK18  BANK19  BANK20  BANK21  BANK22  BANK23  BANK24  BANK25
  3675 ;;      Params:         0       0       0       0       0       0       0       0       0       0       0       0       
      +0       0       0       0       0       0       0       0       0       0       0       0       0       0       0
  3676 ;;      Locals:         0       0       0       0       0       0       0       0       0       0       0       0       
      +0       0       0       0       0       0       0       0       0       0       0       0       0       0       0
  3677 ;;      Temps:          0       0       0       0       0       0       0       0       0       0       0       0       
      +0       0       0       0       0       0       0       0       0       0       0       0       0       0       0
  3678 ;;      Totals:         0       0       0       0       0       0       0       0       0       0       0       0       
      +0       0       0       0       0       0       0       0       0       0       0       0       0       0       0
  3679 ;;Total ram usage:        0 bytes
  3680 ;; Hardware stack levels used:    1
  3681 ;; This function calls:
  3682 ;;		Nothing
  3683 ;; This function is called by:
  3684 ;;		_SYSTEM_Initialize
  3685 ;; This function uses a non-reentrant model
  3686 ;;
  3687                           
  3688                           
  3689                           ;psect for function _PIN_MANAGER_Initialize
  3690  056C                     _PIN_MANAGER_Initialize:	
  3691  056C                     l2407:	
  3692                           ;incstack = 0
  3693                           ; Regs used in _PIN_MANAGER_Initialize: [wreg+status,2]
  3694                           
  3695                           
  3696                           ;mcc_generated_files/pin_manager.c: 60:     LATA = 0x00;
  3697  056C  0140               	movlb	0	; select bank0
  3698  056D  0198               	clrf	24	;volatile
  3699                           
  3700                           ;mcc_generated_files/pin_manager.c: 61:     LATB = 0x00;
  3701  056E  0199               	clrf	25	;volatile
  3702                           
  3703                           ;mcc_generated_files/pin_manager.c: 62:     LATC = 0x00;
  3704  056F  019A               	clrf	26	;volatile
  3705  0570                     l2409:	
  3706                           
  3707                           ;mcc_generated_files/pin_manager.c: 67:     TRISA = 0x04;
  3708  0570  3004               	movlw	4
  3709  0571  0092               	movwf	18	;volatile
  3710  0572                     l2411:	
  3711                           
  3712                           ;mcc_generated_files/pin_manager.c: 68:     TRISB = 0xE0;
  3713  0572  30E0               	movlw	224
  3714  0573  0093               	movwf	19	;volatile
  3715  0574                     l2413:	
  3716                           
  3717                           ;mcc_generated_files/pin_manager.c: 69:     TRISC = 0xFF;
  3718  0574  30FF               	movlw	255
  3719  0575  0094               	movwf	20	;volatile
  3720  0576                     l2415:	
  3721                           
  3722                           ;mcc_generated_files/pin_manager.c: 74:     ANSELC = 0xFF;
  3723  0576  30FF               	movlw	255
  3724  0577  017E               	movlb	62	; select bank62
  3725  0578  00CE               	movwf	78	;volatile
  3726  0579                     l2417:	
  3727                           
  3728                           ;mcc_generated_files/pin_manager.c: 75:     ANSELB = 0x50;
  3729  0579  3050               	movlw	80
  3730  057A  00C3               	movwf	67	;volatile
  3731  057B                     l2419:	
  3732                           
  3733                           ;mcc_generated_files/pin_manager.c: 76:     ANSELA = 0x37;
  3734  057B  3037               	movlw	55
  3735  057C  00B8               	movwf	56	;volatile
  3736                           
  3737                           ;mcc_generated_files/pin_manager.c: 81:     WPUB = 0x00;
  3738  057D  01C4               	clrf	68	;volatile
  3739                           
  3740                           ;mcc_generated_files/pin_manager.c: 82:     WPUA = 0x00;
  3741  057E  01B9               	clrf	57	;volatile
  3742                           
  3743                           ;mcc_generated_files/pin_manager.c: 83:     WPUC = 0x00;
  3744  057F  01CF               	clrf	79	;volatile
  3745                           
  3746                           ;mcc_generated_files/pin_manager.c: 88:     ODCONA = 0x00;
  3747  0580  01BA               	clrf	58	;volatile
  3748                           
  3749                           ;mcc_generated_files/pin_manager.c: 89:     ODCONB = 0x00;
  3750  0581  01C5               	clrf	69	;volatile
  3751                           
  3752                           ;mcc_generated_files/pin_manager.c: 90:     ODCONC = 0x00;
  3753  0582  01D0               	clrf	80	;volatile
  3754  0583                     l2421:	
  3755                           
  3756                           ;mcc_generated_files/pin_manager.c: 95:     SLRCONA = 0x37;
  3757  0583  3037               	movlw	55
  3758  0584  00BB               	movwf	59	;volatile
  3759  0585                     l2423:	
  3760                           
  3761                           ;mcc_generated_files/pin_manager.c: 96:     SLRCONB = 0xF0;
  3762  0585  30F0               	movlw	240
  3763  0586  00C6               	movwf	70	;volatile
  3764  0587                     l2425:	
  3765                           
  3766                           ;mcc_generated_files/pin_manager.c: 97:     SLRCONC = 0xFF;
  3767  0587  30FF               	movlw	255
  3768  0588  00D1               	movwf	81	;volatile
  3769  0589                     l2427:	
  3770                           
  3771                           ;mcc_generated_files/pin_manager.c: 102:     INLVLA = 0x3F;
  3772  0589  303F               	movlw	63
  3773  058A  00BC               	movwf	60	;volatile
  3774  058B                     l2429:	
  3775                           
  3776                           ;mcc_generated_files/pin_manager.c: 103:     INLVLB = 0xF0;
  3777  058B  30F0               	movlw	240
  3778  058C  00C7               	movwf	71	;volatile
  3779  058D                     l2431:	
  3780                           
  3781                           ;mcc_generated_files/pin_manager.c: 104:     INLVLC = 0xFF;
  3782  058D  30FF               	movlw	255
  3783  058E  00D2               	movwf	82	;volatile
  3784  058F                     l2433:	
  3785                           
  3786                           ;mcc_generated_files/pin_manager.c: 113:     SSP2DATPPS = 0x0D;
  3787  058F  300D               	movlw	13
  3788  0590  017D               	movlb	61	; select bank61
  3789  0591  00C9               	movwf	73	;volatile
  3790  0592                     l2435:	
  3791                           
  3792                           ;mcc_generated_files/pin_manager.c: 114:     RB7PPS = 0x15;
  3793  0592  3015               	movlw	21
  3794  0593  017E               	movlb	62	; select bank62
  3795  0594  009F               	movwf	31	;volatile
  3796  0595                     l2437:	
  3797                           
  3798                           ;mcc_generated_files/pin_manager.c: 115:     RB5PPS = 0x16;
  3799  0595  3016               	movlw	22
  3800  0596  009D               	movwf	29	;volatile
  3801  0597                     l2439:	
  3802                           
  3803                           ;mcc_generated_files/pin_manager.c: 116:     SSP2CLKPPS = 0x0F;
  3804  0597  300F               	movlw	15
  3805  0598  017D               	movlb	61	; select bank61
  3806  0599  00C8               	movwf	72	;volatile
  3807  059A                     l198:	
  3808  059A  0008               	return
  3809  059B                     __end_of_PIN_MANAGER_Initialize:	
  3810                           
  3811                           	psect	text4
  3812  03A9                     __ptext4:	
  3813 ;; *************** function _OSCILLATOR_Initialize *****************
  3814 ;; Defined at:
  3815 ;;		line 58 in file "mcc_generated_files/mcc.c"
  3816 ;; Parameters:    Size  Location     Type
  3817 ;;		None
  3818 ;; Auto vars:     Size  Location     Type
  3819 ;;		None
  3820 ;; Return value:  Size  Location     Type
  3821 ;;                  1    wreg      void 
  3822 ;; Registers used:
  3823 ;;		wreg, status,2
  3824 ;; Tracked objects:
  3825 ;;		On entry : 0/0
  3826 ;;		On exit  : 0/0
  3827 ;;		Unchanged: 0/0
  3828 ;; Data sizes:     COMMON   BANK0   BANK1   BANK2   BANK3   BANK4   BANK5   BANK6   BANK7   BANK8   BANK9  BANK10  BANK1
      +1  BANK12  BANK13  BANK14  BANK15  BANK16  BANK17  BANK18  BANK19  BANK20  BANK21  BANK22  BANK23  BANK24  BANK25
  3829 ;;      Params:         0       0       0       0       0       0       0       0       0       0       0       0       
      +0       0       0       0       0       0       0       0       0       0       0       0       0       0       0
  3830 ;;      Locals:         0       0       0       0       0       0       0       0       0       0       0       0       
      +0       0       0       0       0       0       0       0       0       0       0       0       0       0       0
  3831 ;;      Temps:          0       0       0       0       0       0       0       0       0       0       0       0       
      +0       0       0       0       0       0       0       0       0       0       0       0       0       0       0
  3832 ;;      Totals:         0       0       0       0       0       0       0       0       0       0       0       0       
      +0       0       0       0       0       0       0       0       0       0       0       0       0       0       0
  3833 ;;Total ram usage:        0 bytes
  3834 ;; Hardware stack levels used:    1
  3835 ;; This function calls:
  3836 ;;		Nothing
  3837 ;; This function is called by:
  3838 ;;		_SYSTEM_Initialize
  3839 ;; This function uses a non-reentrant model
  3840 ;;
  3841                           
  3842                           
  3843                           ;psect for function _OSCILLATOR_Initialize
  3844  03A9                     _OSCILLATOR_Initialize:	
  3845  03A9                     l2441:	
  3846                           ;incstack = 0
  3847                           ; Regs used in _OSCILLATOR_Initialize: [wreg+status,2]
  3848                           
  3849                           
  3850                           ;mcc_generated_files/mcc.c: 61:     OSCCON1 = 0x62;
  3851  03A9  3062               	movlw	98
  3852  03AA  0151               	movlb	17	; select bank17
  3853  03AB  008D               	movwf	13	;volatile
  3854  03AC                     l2443:	
  3855                           
  3856                           ;mcc_generated_files/mcc.c: 63:     OSCCON3 = 0x00;
  3857  03AC  018F               	clrf	15	;volatile
  3858  03AD                     l2445:	
  3859                           
  3860                           ;mcc_generated_files/mcc.c: 65:     OSCEN = 0x00;
  3861  03AD  0191               	clrf	17	;volatile
  3862                           
  3863                           ;mcc_generated_files/mcc.c: 67:     OSCFRQ = 0x06;
  3864  03AE  3006               	movlw	6
  3865  03AF  0093               	movwf	19	;volatile
  3866  03B0                     l2447:	
  3867                           
  3868                           ;mcc_generated_files/mcc.c: 69:     OSCTUNE = 0x00;
  3869  03B0  0192               	clrf	18	;volatile
  3870  03B1                     l142:	
  3871  03B1  0008               	return
  3872  03B2                     __end_of_OSCILLATOR_Initialize:	
  3873                           
  3874                           	psect	text5
  3875  03A0                     __ptext5:	
  3876 ;; *************** function _I2C2_Initialize *****************
  3877 ;; Defined at:
  3878 ;;		line 167 in file "mcc_generated_files/i2c2_master.c"
  3879 ;; Parameters:    Size  Location     Type
  3880 ;;		None
  3881 ;; Auto vars:     Size  Location     Type
  3882 ;;		None
  3883 ;; Return value:  Size  Location     Type
  3884 ;;                  1    wreg      void 
  3885 ;; Registers used:
  3886 ;;		wreg, status,2
  3887 ;; Tracked objects:
  3888 ;;		On entry : 0/0
  3889 ;;		On exit  : 0/0
  3890 ;;		Unchanged: 0/0
  3891 ;; Data sizes:     COMMON   BANK0   BANK1   BANK2   BANK3   BANK4   BANK5   BANK6   BANK7   BANK8   BANK9  BANK10  BANK1
      +1  BANK12  BANK13  BANK14  BANK15  BANK16  BANK17  BANK18  BANK19  BANK20  BANK21  BANK22  BANK23  BANK24  BANK25
  3892 ;;      Params:         0       0       0       0       0       0       0       0       0       0       0       0       
      +0       0       0       0       0       0       0       0       0       0       0       0       0       0       0
  3893 ;;      Locals:         0       0       0       0       0       0       0       0       0       0       0       0       
      +0       0       0       0       0       0       0       0       0       0       0       0       0       0       0
  3894 ;;      Temps:          0       0       0       0       0       0       0       0       0       0       0       0       
      +0       0       0       0       0       0       0       0       0       0       0       0       0       0       0
  3895 ;;      Totals:         0       0       0       0       0       0       0       0       0       0       0       0       
      +0       0       0       0       0       0       0       0       0       0       0       0       0       0       0
  3896 ;;Total ram usage:        0 bytes
  3897 ;; Hardware stack levels used:    1
  3898 ;; This function calls:
  3899 ;;		Nothing
  3900 ;; This function is called by:
  3901 ;;		_SYSTEM_Initialize
  3902 ;; This function uses a non-reentrant model
  3903 ;;
  3904                           
  3905                           
  3906                           ;psect for function _I2C2_Initialize
  3907  03A0                     _I2C2_Initialize:	
  3908  03A0                     l2399:	
  3909                           ;incstack = 0
  3910                           ; Regs used in _I2C2_Initialize: [wreg+status,2]
  3911                           
  3912                           
  3913                           ;mcc_generated_files/i2c2_master.c: 169:     SSP2STAT = 0x00;
  3914  03A0  0143               	movlb	3	; select bank3
  3915  03A1  0199               	clrf	25	;volatile
  3916  03A2                     l2401:	
  3917                           
  3918                           ;mcc_generated_files/i2c2_master.c: 170:     SSP2CON1 = 0x08;
  3919  03A2  3008               	movlw	8
  3920  03A3  009A               	movwf	26	;volatile
  3921  03A4                     l2403:	
  3922                           
  3923                           ;mcc_generated_files/i2c2_master.c: 171:     SSP2CON2 = 0x00;
  3924  03A4  019B               	clrf	27	;volatile
  3925                           
  3926                           ;mcc_generated_files/i2c2_master.c: 172:     SSP2ADD = 0x09;
  3927  03A5  3009               	movlw	9
  3928  03A6  0097               	movwf	23	;volatile
  3929  03A7                     l2405:	
  3930                           
  3931                           ;mcc_generated_files/i2c2_master.c: 173:     SSP2CON1bits.SSPEN = 0;
  3932  03A7  129A               	bcf	26,5	;volatile
  3933  03A8                     l306:	
  3934  03A8  0008               	return
  3935  03A9                     __end_of_I2C2_Initialize:	
  3936                           
  3937                           	psect	text6
  3938  0761                     __ptext6:	
  3939 ;; *************** function _DispWriteValue *****************
  3940 ;; Defined at:
  3941 ;;		line 6 in file "func.c"
  3942 ;; Parameters:    Size  Location     Type
  3943 ;;  _val            2   11[BANK0 ] short 
  3944 ;; Auto vars:     Size  Location     Type
  3945 ;;  packets         8   16[BANK0 ] unsigned char [8]
  3946 ;;  result          1    0        unsigned char 
  3947 ;; Return value:  Size  Location     Type
  3948 ;;                  1    wreg      unsigned char 
  3949 ;; Registers used:
  3950 ;;		wreg, fsr0l, fsr0h, fsr1l, fsr1h, status,2, status,0, pclath, cstack
  3951 ;; Tracked objects:
  3952 ;;		On entry : 0/0
  3953 ;;		On exit  : 0/0
  3954 ;;		Unchanged: 0/0
  3955 ;; Data sizes:     COMMON   BANK0   BANK1   BANK2   BANK3   BANK4   BANK5   BANK6   BANK7   BANK8   BANK9  BANK10  BANK1
      +1  BANK12  BANK13  BANK14  BANK15  BANK16  BANK17  BANK18  BANK19  BANK20  BANK21  BANK22  BANK23  BANK24  BANK25
  3956 ;;      Params:         0       2       0       0       0       0       0       0       0       0       0       0       
      +0       0       0       0       0       0       0       0       0       0       0       0       0       0       0
  3957 ;;      Locals:         0       9       0       0       0       0       0       0       0       0       0       0       
      +0       0       0       0       0       0       0       0       0       0       0       0       0       0       0
  3958 ;;      Temps:          0       2       0       0       0       0       0       0       0       0       0       0       
      +0       0       0       0       0       0       0       0       0       0       0       0       0       0       0
  3959 ;;      Totals:         0      13       0       0       0       0       0       0       0       0       0       0       
      +0       0       0       0       0       0       0       0       0       0       0       0       0       0       0
  3960 ;;Total ram usage:       13 bytes
  3961 ;; Hardware stack levels used:    1
  3962 ;; Hardware stack levels required when called:    8
  3963 ;; This function calls:
  3964 ;;		_SendI2CData
  3965 ;;		___awdiv
  3966 ;;		___awmod
  3967 ;; This function is called by:
  3968 ;;		_main
  3969 ;; This function uses a non-reentrant model
  3970 ;;
  3971                           
  3972                           
  3973                           ;psect for function _DispWriteValue
  3974  0761                     _DispWriteValue:	
  3975  0761                     l2567:	
  3976                           ;incstack = 0
  3977                           ; Regs used in _DispWriteValue: [wreg-fsr1h+status,2+status,0+pclath+cstack]
  3978                           
  3979                           
  3980                           ;func.c: 6: char DispWriteValue(short _val);func.c: 7: {;func.c: 8:     char packets[8];
      +                          ;func.c: 9:     char result;;func.c: 13:     packets[0] = 0b00001110 | ((_val%10)<<4);
  3981  0761  300A               	movlw	10
  3982  0762  00F9               	movwf	___awmod@divisor
  3983  0763  3000               	movlw	0
  3984  0764  00FA               	movwf	___awmod@divisor+1
  3985  0765  0140               	movlb	0	; select bank0
  3986  0766  084A               	movf	DispWriteValue@_val+1,w
  3987  0767  00FC               	movwf	___awmod@dividend+1
  3988  0768  0849               	movf	DispWriteValue@_val,w
  3989  0769  00FB               	movwf	___awmod@dividend
  3990  076A  3186  2659  3187   	fcall	___awmod
  3991  076D  0879               	movf	?___awmod,w
  3992  076E  0140               	movlb	0	; select bank0
  3993  076F  00CB               	movwf	??_DispWriteValue
  3994  0770  3003               	movlw	3
  3995  0771                     u965:	
  3996  0771  35CB               	lslf	??_DispWriteValue,f
  3997  0772  3EFF               	addlw	-1
  3998  0773  1D03               	skipz
  3999  0774  2F71               	goto	u965
  4000  0775  354B               	lslf	??_DispWriteValue,w
  4001  0776  380E               	iorlw	14
  4002  0777  00CC               	movwf	??_DispWriteValue+1
  4003  0778  084C               	movf	??_DispWriteValue+1,w
  4004  0779  00CE               	movwf	DispWriteValue@packets
  4005  077A                     l2569:	
  4006                           
  4007                           ;func.c: 14:     packets[1] = (packets[0] | (0b00001111));
  4008  077A  084E               	movf	DispWriteValue@packets,w
  4009  077B  380F               	iorlw	15
  4010  077C  00CB               	movwf	??_DispWriteValue
  4011  077D  084B               	movf	??_DispWriteValue,w
  4012  077E  00CF               	movwf	DispWriteValue@packets+1
  4013  077F                     l2571:	
  4014                           
  4015                           ;func.c: 15:     packets[2] = 0b00001101 | (((_val/10)%10)<<4);
  4016  077F  300A               	movlw	10
  4017  0780  00F9               	movwf	___awmod@divisor
  4018  0781  3000               	movlw	0
  4019  0782  00FA               	movwf	___awmod@divisor+1
  4020  0783  300A               	movlw	10
  4021  0784  00F0               	movwf	___awdiv@divisor
  4022  0785  3000               	movlw	0
  4023  0786  00F1               	movwf	___awdiv@divisor+1
  4024  0787  084A               	movf	DispWriteValue@_val+1,w
  4025  0788  00F3               	movwf	___awdiv@dividend+1
  4026  0789  0849               	movf	DispWriteValue@_val,w
  4027  078A  00F2               	movwf	___awdiv@dividend
  4028  078B  3187  2702  3187   	fcall	___awdiv
  4029  078E  0871               	movf	?___awdiv+1,w
  4030  078F  00FC               	movwf	___awmod@dividend+1
  4031  0790  0870               	movf	?___awdiv,w
  4032  0791  00FB               	movwf	___awmod@dividend
  4033  0792  3186  2659  3187   	fcall	___awmod
  4034  0795  0879               	movf	?___awmod,w
  4035  0796  0140               	movlb	0	; select bank0
  4036  0797  00CB               	movwf	??_DispWriteValue
  4037  0798  3003               	movlw	3
  4038  0799                     u975:	
  4039  0799  35CB               	lslf	??_DispWriteValue,f
  4040  079A  3EFF               	addlw	-1
  4041  079B  1D03               	skipz
  4042  079C  2F99               	goto	u975
  4043  079D  354B               	lslf	??_DispWriteValue,w
  4044  079E  380D               	iorlw	13
  4045  079F  00CC               	movwf	??_DispWriteValue+1
  4046  07A0  084C               	movf	??_DispWriteValue+1,w
  4047  07A1  00D0               	movwf	DispWriteValue@packets+2
  4048                           
  4049                           ;func.c: 16:     packets[3] = (packets[2] | (0b00001111));
  4050  07A2  0850               	movf	DispWriteValue@packets+2,w
  4051  07A3  380F               	iorlw	15
  4052  07A4  00CB               	movwf	??_DispWriteValue
  4053  07A5  084B               	movf	??_DispWriteValue,w
  4054  07A6  00D1               	movwf	DispWriteValue@packets+3
  4055  07A7                     l2573:	
  4056                           
  4057                           ;func.c: 17:     packets[4] = 0b00001011 | (((_val/100)%10)<<4);
  4058  07A7  300A               	movlw	10
  4059  07A8  00F9               	movwf	___awmod@divisor
  4060  07A9  3000               	movlw	0
  4061  07AA  00FA               	movwf	___awmod@divisor+1
  4062  07AB  3064               	movlw	100
  4063  07AC  00F0               	movwf	___awdiv@divisor
  4064  07AD  3000               	movlw	0
  4065  07AE  00F1               	movwf	___awdiv@divisor+1
  4066  07AF  084A               	movf	DispWriteValue@_val+1,w
  4067  07B0  00F3               	movwf	___awdiv@dividend+1
  4068  07B1  0849               	movf	DispWriteValue@_val,w
  4069  07B2  00F2               	movwf	___awdiv@dividend
  4070  07B3  3187  2702  3187   	fcall	___awdiv
  4071  07B6  0871               	movf	?___awdiv+1,w
  4072  07B7  00FC               	movwf	___awmod@dividend+1
  4073  07B8  0870               	movf	?___awdiv,w
  4074  07B9  00FB               	movwf	___awmod@dividend
  4075  07BA  3186  2659  3187   	fcall	___awmod
  4076  07BD  0879               	movf	?___awmod,w
  4077  07BE  0140               	movlb	0	; select bank0
  4078  07BF  00CB               	movwf	??_DispWriteValue
  4079  07C0  3003               	movlw	3
  4080  07C1                     u985:	
  4081  07C1  35CB               	lslf	??_DispWriteValue,f
  4082  07C2  3EFF               	addlw	-1
  4083  07C3  1D03               	skipz
  4084  07C4  2FC1               	goto	u985
  4085  07C5  354B               	lslf	??_DispWriteValue,w
  4086  07C6  380B               	iorlw	11
  4087  07C7  00CC               	movwf	??_DispWriteValue+1
  4088  07C8  084C               	movf	??_DispWriteValue+1,w
  4089  07C9  00D2               	movwf	DispWriteValue@packets+4
  4090  07CA                     l2575:	
  4091                           
  4092                           ;func.c: 18:     packets[5] = (packets[4] | (0b00001111));
  4093  07CA  0852               	movf	DispWriteValue@packets+4,w
  4094  07CB  380F               	iorlw	15
  4095  07CC  00CB               	movwf	??_DispWriteValue
  4096  07CD  084B               	movf	??_DispWriteValue,w
  4097  07CE  00D3               	movwf	DispWriteValue@packets+5
  4098                           
  4099                           ;func.c: 19:     packets[6] = 0b00000111 | ((_val/1000)<<4);
  4100  07CF  30E8               	movlw	232
  4101  07D0  00F0               	movwf	___awdiv@divisor
  4102  07D1  3003               	movlw	3
  4103  07D2  00F1               	movwf	___awdiv@divisor+1
  4104  07D3  084A               	movf	DispWriteValue@_val+1,w
  4105  07D4  00F3               	movwf	___awdiv@dividend+1
  4106  07D5  0849               	movf	DispWriteValue@_val,w
  4107  07D6  00F2               	movwf	___awdiv@dividend
  4108  07D7  3187  2702  3187   	fcall	___awdiv
  4109  07DA  0870               	movf	?___awdiv,w
  4110  07DB  0140               	movlb	0	; select bank0
  4111  07DC  00CB               	movwf	??_DispWriteValue
  4112  07DD  3003               	movlw	3
  4113  07DE                     u995:	
  4114  07DE  35CB               	lslf	??_DispWriteValue,f
  4115  07DF  3EFF               	addlw	-1
  4116  07E0  1D03               	skipz
  4117  07E1  2FDE               	goto	u995
  4118  07E2  354B               	lslf	??_DispWriteValue,w
  4119  07E3  3807               	iorlw	7
  4120  07E4  00CC               	movwf	??_DispWriteValue+1
  4121  07E5  084C               	movf	??_DispWriteValue+1,w
  4122  07E6  00D4               	movwf	DispWriteValue@packets+6
  4123  07E7                     l2577:	
  4124                           
  4125                           ;func.c: 20:     packets[7] = (packets[6] | (0b00001111));
  4126  07E7  0854               	movf	DispWriteValue@packets+6,w
  4127  07E8  380F               	iorlw	15
  4128  07E9  00CB               	movwf	??_DispWriteValue
  4129  07EA  084B               	movf	??_DispWriteValue,w
  4130  07EB  00D5               	movwf	DispWriteValue@packets+7
  4131  07EC                     l2579:	
  4132  07EC  3008               	movlw	8
  4133  07ED  00C3               	movwf	SendI2CData@_dataSize
  4134  07EE  3000               	movlw	0
  4135  07EF  00C4               	movwf	SendI2CData@_dataSize+1
  4136  07F0  304E               	movlw	(low (DispWriteValue@packets| 0))& (0+255)
  4137  07F1  3185  25D5  3187   	fcall	_SendI2CData
  4138  07F4                     l574:	
  4139  07F4  0008               	return
  4140  07F5                     __end_of_DispWriteValue:	
  4141                           
  4142                           	psect	text7
  4143  0659                     __ptext7:	
  4144 ;; *************** function ___awmod *****************
  4145 ;; Defined at:
  4146 ;;		line 5 in file "C:\Program Files (x86)\Microchip\xc8\v2.10\pic\sources\c99\common\awmod.c"
  4147 ;; Parameters:    Size  Location     Type
  4148 ;;  divisor         2    9[COMMON] int 
  4149 ;;  dividend        2   11[COMMON] int 
  4150 ;; Auto vars:     Size  Location     Type
  4151 ;;  sign            1    1[BANK0 ] unsigned char 
  4152 ;;  counter         1    0[BANK0 ] unsigned char 
  4153 ;; Return value:  Size  Location     Type
  4154 ;;                  2    9[COMMON] int 
  4155 ;; Registers used:
  4156 ;;		wreg, status,2, status,0
  4157 ;; Tracked objects:
  4158 ;;		On entry : 0/0
  4159 ;;		On exit  : 0/0
  4160 ;;		Unchanged: 0/0
  4161 ;; Data sizes:     COMMON   BANK0   BANK1   BANK2   BANK3   BANK4   BANK5   BANK6   BANK7   BANK8   BANK9  BANK10  BANK1
      +1  BANK12  BANK13  BANK14  BANK15  BANK16  BANK17  BANK18  BANK19  BANK20  BANK21  BANK22  BANK23  BANK24  BANK25
  4162 ;;      Params:         4       0       0       0       0       0       0       0       0       0       0       0       
      +0       0       0       0       0       0       0       0       0       0       0       0       0       0       0
  4163 ;;      Locals:         0       2       0       0       0       0       0       0       0       0       0       0       
      +0       0       0       0       0       0       0       0       0       0       0       0       0       0       0
  4164 ;;      Temps:          1       0       0       0       0       0       0       0       0       0       0       0       
      +0       0       0       0       0       0       0       0       0       0       0       0       0       0       0
  4165 ;;      Totals:         5       2       0       0       0       0       0       0       0       0       0       0       
      +0       0       0       0       0       0       0       0       0       0       0       0       0       0       0
  4166 ;;Total ram usage:        7 bytes
  4167 ;; Hardware stack levels used:    1
  4168 ;; This function calls:
  4169 ;;		Nothing
  4170 ;; This function is called by:
  4171 ;;		_DispWriteValue
  4172 ;; This function uses a non-reentrant model
  4173 ;;
  4174                           
  4175                           
  4176                           ;psect for function ___awmod
  4177  0659                     ___awmod:	
  4178  0659                     l2521:	
  4179                           ;incstack = 0
  4180                           ; Regs used in ___awmod: [wreg+status,2+status,0]
  4181                           
  4182  0659  0140               	movlb	0	; select bank0
  4183  065A  01BF               	clrf	___awmod@sign
  4184  065B                     l2523:	
  4185  065B  1FFC               	btfss	___awmod@dividend+1,7
  4186  065C  2E5E               	goto	u871
  4187  065D  2E5F               	goto	u870
  4188  065E                     u871:	
  4189  065E  2E66               	goto	l2529
  4190  065F                     u870:	
  4191  065F                     l2525:	
  4192  065F  09FB               	comf	___awmod@dividend,f
  4193  0660  09FC               	comf	___awmod@dividend+1,f
  4194  0661  0AFB               	incf	___awmod@dividend,f
  4195  0662  1903               	skipnz
  4196  0663  0AFC               	incf	___awmod@dividend+1,f
  4197  0664                     l2527:	
  4198  0664  01BF               	clrf	___awmod@sign
  4199  0665  0ABF               	incf	___awmod@sign,f
  4200  0666                     l2529:	
  4201  0666  1FFA               	btfss	___awmod@divisor+1,7
  4202  0667  2E69               	goto	u881
  4203  0668  2E6A               	goto	u880
  4204  0669                     u881:	
  4205  0669  2E6F               	goto	l2533
  4206  066A                     u880:	
  4207  066A                     l2531:	
  4208  066A  09F9               	comf	___awmod@divisor,f
  4209  066B  09FA               	comf	___awmod@divisor+1,f
  4210  066C  0AF9               	incf	___awmod@divisor,f
  4211  066D  1903               	skipnz
  4212  066E  0AFA               	incf	___awmod@divisor+1,f
  4213  066F                     l2533:	
  4214  066F  0879               	movf	___awmod@divisor,w
  4215  0670  047A               	iorwf	___awmod@divisor+1,w
  4216  0671  1903               	btfsc	3,2
  4217  0672  2E74               	goto	u891
  4218  0673  2E75               	goto	u890
  4219  0674                     u891:	
  4220  0674  2E9E               	goto	l2551
  4221  0675                     u890:	
  4222  0675                     l2535:	
  4223  0675  01BE               	clrf	___awmod@counter
  4224  0676  0ABE               	incf	___awmod@counter,f
  4225  0677  2E81               	goto	l2541
  4226  0678                     l2537:	
  4227  0678  3001               	movlw	1
  4228  0679                     u905:	
  4229  0679  35F9               	lslf	___awmod@divisor,f
  4230  067A  0DFA               	rlf	___awmod@divisor+1,f
  4231  067B  0B89               	decfsz	9,f
  4232  067C  2E79               	goto	u905
  4233  067D                     l2539:	
  4234  067D  3001               	movlw	1
  4235  067E  00FD               	movwf	??___awmod
  4236  067F  087D               	movf	??___awmod,w
  4237  0680  07BE               	addwf	___awmod@counter,f
  4238  0681                     l2541:	
  4239  0681  1FFA               	btfss	___awmod@divisor+1,7
  4240  0682  2E84               	goto	u911
  4241  0683  2E85               	goto	u910
  4242  0684                     u911:	
  4243  0684  2E78               	goto	l2537
  4244  0685                     u910:	
  4245  0685                     l2543:	
  4246  0685  087A               	movf	___awmod@divisor+1,w
  4247  0686  027C               	subwf	___awmod@dividend+1,w
  4248  0687  1D03               	skipz
  4249  0688  2E8B               	goto	u925
  4250  0689  0879               	movf	___awmod@divisor,w
  4251  068A  027B               	subwf	___awmod@dividend,w
  4252  068B                     u925:	
  4253  068B  1C03               	skipc
  4254  068C  2E8E               	goto	u921
  4255  068D  2E8F               	goto	u920
  4256  068E                     u921:	
  4257  068E  2E93               	goto	l2547
  4258  068F                     u920:	
  4259  068F                     l2545:	
  4260  068F  0879               	movf	___awmod@divisor,w
  4261  0690  02FB               	subwf	___awmod@dividend,f
  4262  0691  087A               	movf	___awmod@divisor+1,w
  4263  0692  3BFC               	subwfb	___awmod@dividend+1,f
  4264  0693                     l2547:	
  4265  0693  3001               	movlw	1
  4266  0694                     u935:	
  4267  0694  36FA               	lsrf	___awmod@divisor+1,f
  4268  0695  0CF9               	rrf	___awmod@divisor,f
  4269  0696  0B89               	decfsz	9,f
  4270  0697  2E94               	goto	u935
  4271  0698                     l2549:	
  4272  0698  3001               	movlw	1
  4273  0699  02BE               	subwf	___awmod@counter,f
  4274  069A  1D03               	btfss	3,2
  4275  069B  2E9D               	goto	u941
  4276  069C  2E9E               	goto	u940
  4277  069D                     u941:	
  4278  069D  2E85               	goto	l2543
  4279  069E                     u940:	
  4280  069E                     l2551:	
  4281  069E  083F               	movf	___awmod@sign,w
  4282  069F  1903               	btfsc	3,2
  4283  06A0  2EA2               	goto	u951
  4284  06A1  2EA3               	goto	u950
  4285  06A2                     u951:	
  4286  06A2  2EA8               	goto	l2555
  4287  06A3                     u950:	
  4288  06A3                     l2553:	
  4289  06A3  09FB               	comf	___awmod@dividend,f
  4290  06A4  09FC               	comf	___awmod@dividend+1,f
  4291  06A5  0AFB               	incf	___awmod@dividend,f
  4292  06A6  1903               	skipnz
  4293  06A7  0AFC               	incf	___awmod@dividend+1,f
  4294  06A8                     l2555:	
  4295  06A8  087C               	movf	___awmod@dividend+1,w
  4296  06A9  00FA               	movwf	?___awmod+1
  4297  06AA  087B               	movf	___awmod@dividend,w
  4298  06AB  00F9               	movwf	?___awmod
  4299  06AC                     l901:	
  4300  06AC  0008               	return
  4301  06AD                     __end_of___awmod:	
  4302                           
  4303                           	psect	text8
  4304  0702                     __ptext8:	
  4305 ;; *************** function ___awdiv *****************
  4306 ;; Defined at:
  4307 ;;		line 5 in file "C:\Program Files (x86)\Microchip\xc8\v2.10\pic\sources\c99\common\awdiv.c"
  4308 ;; Parameters:    Size  Location     Type
  4309 ;;  divisor         2    0[COMMON] int 
  4310 ;;  dividend        2    2[COMMON] int 
  4311 ;; Auto vars:     Size  Location     Type
  4312 ;;  quotient        2    7[COMMON] int 
  4313 ;;  sign            1    6[COMMON] unsigned char 
  4314 ;;  counter         1    5[COMMON] unsigned char 
  4315 ;; Return value:  Size  Location     Type
  4316 ;;                  2    0[COMMON] int 
  4317 ;; Registers used:
  4318 ;;		wreg, status,2, status,0
  4319 ;; Tracked objects:
  4320 ;;		On entry : 0/0
  4321 ;;		On exit  : 0/0
  4322 ;;		Unchanged: 0/0
  4323 ;; Data sizes:     COMMON   BANK0   BANK1   BANK2   BANK3   BANK4   BANK5   BANK6   BANK7   BANK8   BANK9  BANK10  BANK1
      +1  BANK12  BANK13  BANK14  BANK15  BANK16  BANK17  BANK18  BANK19  BANK20  BANK21  BANK22  BANK23  BANK24  BANK25
  4324 ;;      Params:         4       0       0       0       0       0       0       0       0       0       0       0       
      +0       0       0       0       0       0       0       0       0       0       0       0       0       0       0
  4325 ;;      Locals:         4       0       0       0       0       0       0       0       0       0       0       0       
      +0       0       0       0       0       0       0       0       0       0       0       0       0       0       0
  4326 ;;      Temps:          1       0       0       0       0       0       0       0       0       0       0       0       
      +0       0       0       0       0       0       0       0       0       0       0       0       0       0       0
  4327 ;;      Totals:         9       0       0       0       0       0       0       0       0       0       0       0       
      +0       0       0       0       0       0       0       0       0       0       0       0       0       0       0
  4328 ;;Total ram usage:        9 bytes
  4329 ;; Hardware stack levels used:    1
  4330 ;; This function calls:
  4331 ;;		Nothing
  4332 ;; This function is called by:
  4333 ;;		_DispWriteValue
  4334 ;; This function uses a non-reentrant model
  4335 ;;
  4336                           
  4337                           
  4338                           ;psect for function ___awdiv
  4339  0702                     ___awdiv:	
  4340  0702                     l2477:	
  4341                           ;incstack = 0
  4342                           ; Regs used in ___awdiv: [wreg+status,2+status,0]
  4343                           
  4344  0702  01F6               	clrf	___awdiv@sign
  4345  0703                     l2479:	
  4346  0703  1FF1               	btfss	___awdiv@divisor+1,7
  4347  0704  2F06               	goto	u771
  4348  0705  2F07               	goto	u770
  4349  0706                     u771:	
  4350  0706  2F0E               	goto	l2485
  4351  0707                     u770:	
  4352  0707                     l2481:	
  4353  0707  09F0               	comf	___awdiv@divisor,f
  4354  0708  09F1               	comf	___awdiv@divisor+1,f
  4355  0709  0AF0               	incf	___awdiv@divisor,f
  4356  070A  1903               	skipnz
  4357  070B  0AF1               	incf	___awdiv@divisor+1,f
  4358  070C                     l2483:	
  4359  070C  01F6               	clrf	___awdiv@sign
  4360  070D  0AF6               	incf	___awdiv@sign,f
  4361  070E                     l2485:	
  4362  070E  1FF3               	btfss	___awdiv@dividend+1,7
  4363  070F  2F11               	goto	u781
  4364  0710  2F12               	goto	u780
  4365  0711                     u781:	
  4366  0711  2F1B               	goto	l2491
  4367  0712                     u780:	
  4368  0712                     l2487:	
  4369  0712  09F2               	comf	___awdiv@dividend,f
  4370  0713  09F3               	comf	___awdiv@dividend+1,f
  4371  0714  0AF2               	incf	___awdiv@dividend,f
  4372  0715  1903               	skipnz
  4373  0716  0AF3               	incf	___awdiv@dividend+1,f
  4374  0717                     l2489:	
  4375  0717  3001               	movlw	1
  4376  0718  00F4               	movwf	??___awdiv
  4377  0719  0874               	movf	??___awdiv,w
  4378  071A  06F6               	xorwf	___awdiv@sign,f
  4379  071B                     l2491:	
  4380  071B  01F7               	clrf	___awdiv@quotient
  4381  071C  01F8               	clrf	___awdiv@quotient+1
  4382  071D                     l2493:	
  4383  071D  0870               	movf	___awdiv@divisor,w
  4384  071E  0471               	iorwf	___awdiv@divisor+1,w
  4385  071F  1903               	btfsc	3,2
  4386  0720  2F22               	goto	u791
  4387  0721  2F23               	goto	u790
  4388  0722                     u791:	
  4389  0722  2F52               	goto	l2513
  4390  0723                     u790:	
  4391  0723                     l2495:	
  4392  0723  01F5               	clrf	___awdiv@counter
  4393  0724  0AF5               	incf	___awdiv@counter,f
  4394  0725  2F2F               	goto	l2501
  4395  0726                     l2497:	
  4396  0726  3001               	movlw	1
  4397  0727                     u805:	
  4398  0727  35F0               	lslf	___awdiv@divisor,f
  4399  0728  0DF1               	rlf	___awdiv@divisor+1,f
  4400  0729  0B89               	decfsz	9,f
  4401  072A  2F27               	goto	u805
  4402  072B                     l2499:	
  4403  072B  3001               	movlw	1
  4404  072C  00F4               	movwf	??___awdiv
  4405  072D  0874               	movf	??___awdiv,w
  4406  072E  07F5               	addwf	___awdiv@counter,f
  4407  072F                     l2501:	
  4408  072F  1FF1               	btfss	___awdiv@divisor+1,7
  4409  0730  2F32               	goto	u811
  4410  0731  2F33               	goto	u810
  4411  0732                     u811:	
  4412  0732  2F26               	goto	l2497
  4413  0733                     u810:	
  4414  0733                     l2503:	
  4415  0733  3001               	movlw	1
  4416  0734                     u825:	
  4417  0734  35F7               	lslf	___awdiv@quotient,f
  4418  0735  0DF8               	rlf	___awdiv@quotient+1,f
  4419  0736  0B89               	decfsz	9,f
  4420  0737  2F34               	goto	u825
  4421  0738  0871               	movf	___awdiv@divisor+1,w
  4422  0739  0273               	subwf	___awdiv@dividend+1,w
  4423  073A  1D03               	skipz
  4424  073B  2F3E               	goto	u835
  4425  073C  0870               	movf	___awdiv@divisor,w
  4426  073D  0272               	subwf	___awdiv@dividend,w
  4427  073E                     u835:	
  4428  073E  1C03               	skipc
  4429  073F  2F41               	goto	u831
  4430  0740  2F42               	goto	u830
  4431  0741                     u831:	
  4432  0741  2F47               	goto	l2509
  4433  0742                     u830:	
  4434  0742                     l2505:	
  4435  0742  0870               	movf	___awdiv@divisor,w
  4436  0743  02F2               	subwf	___awdiv@dividend,f
  4437  0744  0871               	movf	___awdiv@divisor+1,w
  4438  0745  3BF3               	subwfb	___awdiv@dividend+1,f
  4439  0746                     l2507:	
  4440  0746  1477               	bsf	___awdiv@quotient,0
  4441  0747                     l2509:	
  4442  0747  3001               	movlw	1
  4443  0748                     u845:	
  4444  0748  36F1               	lsrf	___awdiv@divisor+1,f
  4445  0749  0CF0               	rrf	___awdiv@divisor,f
  4446  074A  0B89               	decfsz	9,f
  4447  074B  2F48               	goto	u845
  4448  074C                     l2511:	
  4449  074C  3001               	movlw	1
  4450  074D  02F5               	subwf	___awdiv@counter,f
  4451  074E  1D03               	btfss	3,2
  4452  074F  2F51               	goto	u851
  4453  0750  2F52               	goto	u850
  4454  0751                     u851:	
  4455  0751  2F33               	goto	l2503
  4456  0752                     u850:	
  4457  0752                     l2513:	
  4458  0752  0876               	movf	___awdiv@sign,w
  4459  0753  1903               	btfsc	3,2
  4460  0754  2F56               	goto	u861
  4461  0755  2F57               	goto	u860
  4462  0756                     u861:	
  4463  0756  2F5C               	goto	l2517
  4464  0757                     u860:	
  4465  0757                     l2515:	
  4466  0757  09F7               	comf	___awdiv@quotient,f
  4467  0758  09F8               	comf	___awdiv@quotient+1,f
  4468  0759  0AF7               	incf	___awdiv@quotient,f
  4469  075A  1903               	skipnz
  4470  075B  0AF8               	incf	___awdiv@quotient+1,f
  4471  075C                     l2517:	
  4472  075C  0878               	movf	___awdiv@quotient+1,w
  4473  075D  00F1               	movwf	?___awdiv+1
  4474  075E  0877               	movf	___awdiv@quotient,w
  4475  075F  00F0               	movwf	?___awdiv
  4476  0760                     l888:	
  4477  0760  0008               	return
  4478  0761                     __end_of___awdiv:	
  4479                           
  4480                           	psect	text9
  4481  05D5                     __ptext9:	
  4482 ;; *************** function _SendI2CData *****************
  4483 ;; Defined at:
  4484 ;;		line 27 in file "func.c"
  4485 ;; Parameters:    Size  Location     Type
  4486 ;;  _data           1    wreg     PTR unsigned char 
  4487 ;;		 -> DispWriteValue@packets(8), 
  4488 ;;  _dataSize       2    5[BANK0 ] const short 
  4489 ;; Auto vars:     Size  Location     Type
  4490 ;;  _data           1    9[BANK0 ] PTR unsigned char 
  4491 ;;		 -> DispWriteValue@packets(8), 
  4492 ;;  result          1   10[BANK0 ] enum E11227
  4493 ;;  i               1    8[BANK0 ] unsigned char 
  4494 ;; Return value:  Size  Location     Type
  4495 ;;                  1    wreg      unsigned char 
  4496 ;; Registers used:
  4497 ;;		wreg, fsr0l, fsr0h, fsr1l, fsr1h, status,2, status,0, pclath, cstack
  4498 ;; Tracked objects:
  4499 ;;		On entry : 0/0
  4500 ;;		On exit  : 0/0
  4501 ;;		Unchanged: 0/0
  4502 ;; Data sizes:     COMMON   BANK0   BANK1   BANK2   BANK3   BANK4   BANK5   BANK6   BANK7   BANK8   BANK9  BANK10  BANK1
      +1  BANK12  BANK13  BANK14  BANK15  BANK16  BANK17  BANK18  BANK19  BANK20  BANK21  BANK22  BANK23  BANK24  BANK25
  4503 ;;      Params:         0       2       0       0       0       0       0       0       0       0       0       0       
      +0       0       0       0       0       0       0       0       0       0       0       0       0       0       0
  4504 ;;      Locals:         0       3       0       0       0       0       0       0       0       0       0       0       
      +0       0       0       0       0       0       0       0       0       0       0       0       0       0       0
  4505 ;;      Temps:          0       1       0       0       0       0       0       0       0       0       0       0       
      +0       0       0       0       0       0       0       0       0       0       0       0       0       0       0
  4506 ;;      Totals:         0       6       0       0       0       0       0       0       0       0       0       0       
      +0       0       0       0       0       0       0       0       0       0       0       0       0       0       0
  4507 ;;Total ram usage:        6 bytes
  4508 ;; Hardware stack levels used:    1
  4509 ;; Hardware stack levels required when called:    7
  4510 ;; This function calls:
  4511 ;;		_I2C2_Close
  4512 ;;		_I2C2_MasterOperation
  4513 ;;		_I2C2_Open
  4514 ;;		_I2C2_SetBuffer
  4515 ;; This function is called by:
  4516 ;;		_DispWriteValue
  4517 ;; This function uses a non-reentrant model
  4518 ;;
  4519                           
  4520                           
  4521                           ;psect for function _SendI2CData
  4522  05D5                     _SendI2CData:	
  4523                           
  4524                           ;incstack = 0
  4525                           ; Regs used in _SendI2CData: [wreg-fsr1h+status,2+status,0+pclath+cstack]
  4526                           ;SendI2CData@_data stored from wreg
  4527  05D5  0140               	movlb	0	; select bank0
  4528  05D6  00C7               	movwf	SendI2CData@_data
  4529  05D7                     l577:	
  4530                           ;func.c: 27: char SendI2CData(char* _data, const short _dataSize);func.c: 28: {;func.c: 
      +                          29:     i2c2_error_t result;;func.c: 31:     char i;;func.c: 35:     do {
  4531                           
  4532  05D7                     l2449:	
  4533                           
  4534                           ;func.c: 36:         result = I2C2_Open(0b0100000);
  4535  05D7  3020               	movlw	32
  4536  05D8  3185  259B  3185   	fcall	_I2C2_Open
  4537  05DB  0140               	movlb	0	; select bank0
  4538  05DC  00C5               	movwf	??_SendI2CData
  4539  05DD  0845               	movf	??_SendI2CData,w
  4540  05DE  00C8               	movwf	SendI2CData@result
  4541  05DF                     l2451:	
  4542                           
  4543                           ;func.c: 37:         if (result == I2C2_FAIL)
  4544  05DF  3002               	movlw	2
  4545  05E0  0648               	xorwf	SendI2CData@result,w
  4546  05E1  1D03               	btfss	3,2
  4547  05E2  2DE4               	goto	u731
  4548  05E3  2DE5               	goto	u730
  4549  05E4                     u731:	
  4550  05E4  2DE7               	goto	l2457
  4551  05E5                     u730:	
  4552  05E5                     l2453:	
  4553                           
  4554                           ;func.c: 38:             return I2C2_FAIL;
  4555  05E5  3002               	movlw	2
  4556  05E6  2E12               	goto	l579
  4557  05E7                     l2457:	
  4558                           
  4559                           ;func.c: 39:         ++i;
  4560  05E7  3001               	movlw	1
  4561  05E8  00C5               	movwf	??_SendI2CData
  4562  05E9  0845               	movf	??_SendI2CData,w
  4563  05EA  07C6               	addwf	SendI2CData@i,f
  4564                           
  4565                           ;func.c: 42:     } while (result == I2C2_BUSY && i < 10);
  4566  05EB  0348               	decf	SendI2CData@result,w
  4567  05EC  1D03               	btfss	3,2
  4568  05ED  2DEF               	goto	u741
  4569  05EE  2DF0               	goto	u740
  4570  05EF                     u741:	
  4571  05EF  2DF6               	goto	l2461
  4572  05F0                     u740:	
  4573  05F0                     l2459:	
  4574  05F0  300A               	movlw	10
  4575  05F1  0246               	subwf	SendI2CData@i,w
  4576  05F2  1C03               	skipc
  4577  05F3  2DF5               	goto	u751
  4578  05F4  2DF6               	goto	u750
  4579  05F5                     u751:	
  4580  05F5  2DD7               	goto	l577
  4581  05F6                     u750:	
  4582  05F6                     l2461:	
  4583                           
  4584                           ;func.c: 44:     if (result == I2C2_BUSY)
  4585  05F6  0348               	decf	SendI2CData@result,w
  4586  05F7  1D03               	btfss	3,2
  4587  05F8  2DFA               	goto	u761
  4588  05F9  2DFB               	goto	u760
  4589  05FA                     u761:	
  4590  05FA  2DFD               	goto	l2467
  4591  05FB                     u760:	
  4592  05FB                     l2463:	
  4593                           
  4594                           ;func.c: 45:         return I2C2_BUSY;
  4595  05FB  3001               	movlw	1
  4596  05FC  2E12               	goto	l579
  4597  05FD                     l2467:	
  4598                           
  4599                           ;func.c: 47:     I2C2_SetBuffer((char*)_data, _dataSize);
  4600  05FD  0844               	movf	SendI2CData@_dataSize+1,w
  4601  05FE  00F1               	movwf	I2C2_SetBuffer@bufferSize+1
  4602  05FF  0843               	movf	SendI2CData@_dataSize,w
  4603  0600  00F0               	movwf	I2C2_SetBuffer@bufferSize
  4604  0601  0847               	movf	SendI2CData@_data,w
  4605  0602  3183  23F0  3185   	fcall	_I2C2_SetBuffer
  4606  0605                     l2469:	
  4607                           
  4608                           ;func.c: 48:     result = I2C2_MasterOperation(0);
  4609  0605  3000               	movlw	0
  4610  0606  3184  2478  3185   	fcall	_I2C2_MasterOperation
  4611  0609  0140               	movlb	0	; select bank0
  4612  060A  00C5               	movwf	??_SendI2CData
  4613  060B  0845               	movf	??_SendI2CData,w
  4614  060C  00C8               	movwf	SendI2CData@result
  4615  060D                     l2471:	
  4616                           
  4617                           ;func.c: 49:     I2C2_Close();
  4618  060D  3184  245C  3185   	fcall	_I2C2_Close
  4619  0610                     l2473:	
  4620                           
  4621                           ;func.c: 50:     return result;
  4622  0610  0140               	movlb	0	; select bank0
  4623  0611  0848               	movf	SendI2CData@result,w
  4624  0612                     l579:	
  4625  0612  0008               	return
  4626  0613                     __end_of_SendI2CData:	
  4627                           
  4628                           	psect	text10
  4629  059B                     __ptext10:	
  4630 ;; *************** function _I2C2_Open *****************
  4631 ;; Defined at:
  4632 ;;		line 176 in file "mcc_generated_files/i2c2_master.c"
  4633 ;; Parameters:    Size  Location     Type
  4634 ;;  address         1    wreg     unsigned char 
  4635 ;; Auto vars:     Size  Location     Type
  4636 ;;  address         1    1[COMMON] unsigned char 
  4637 ;;  returnValue     1    2[COMMON] enum E353
  4638 ;; Return value:  Size  Location     Type
  4639 ;;                  1    wreg      enum E353
  4640 ;; Registers used:
  4641 ;;		wreg, status,2, status,0, pclath, cstack
  4642 ;; Tracked objects:
  4643 ;;		On entry : 0/0
  4644 ;;		On exit  : 0/0
  4645 ;;		Unchanged: 0/0
  4646 ;; Data sizes:     COMMON   BANK0   BANK1   BANK2   BANK3   BANK4   BANK5   BANK6   BANK7   BANK8   BANK9  BANK10  BANK1
      +1  BANK12  BANK13  BANK14  BANK15  BANK16  BANK17  BANK18  BANK19  BANK20  BANK21  BANK22  BANK23  BANK24  BANK25
  4647 ;;      Params:         0       0       0       0       0       0       0       0       0       0       0       0       
      +0       0       0       0       0       0       0       0       0       0       0       0       0       0       0
  4648 ;;      Locals:         2       0       0       0       0       0       0       0       0       0       0       0       
      +0       0       0       0       0       0       0       0       0       0       0       0       0       0       0
  4649 ;;      Temps:          1       0       0       0       0       0       0       0       0       0       0       0       
      +0       0       0       0       0       0       0       0       0       0       0       0       0       0       0
  4650 ;;      Totals:         3       0       0       0       0       0       0       0       0       0       0       0       
      +0       0       0       0       0       0       0       0       0       0       0       0       0       0       0
  4651 ;;Total ram usage:        3 bytes
  4652 ;; Hardware stack levels used:    1
  4653 ;; Hardware stack levels required when called:    1
  4654 ;; This function calls:
  4655 ;;		_I2C2_MasterClearIrq
  4656 ;;		_I2C2_MasterOpen
  4657 ;; This function is called by:
  4658 ;;		_SendI2CData
  4659 ;;		_I2C2_Read1ByteRegister
  4660 ;;		_I2C2_Read2ByteRegister
  4661 ;;		_I2C2_Write1ByteRegister
  4662 ;;		_I2C2_Write2ByteRegister
  4663 ;;		_I2C2_WriteNBytes
  4664 ;;		_I2C2_ReadNBytes
  4665 ;;		_I2C2_ReadDataBlock
  4666 ;; This function uses a non-reentrant model
  4667 ;;
  4668                           
  4669                           
  4670                           ;psect for function _I2C2_Open
  4671  059B                     _I2C2_Open:	
  4672                           
  4673                           ;incstack = 0
  4674                           ; Regs used in _I2C2_Open: [wreg+status,2+status,0+pclath+cstack]
  4675                           ;I2C2_Open@address stored from wreg
  4676  059B  00F1               	movwf	I2C2_Open@address
  4677  059C                     l2327:	
  4678                           
  4679                           ;mcc_generated_files/i2c2_master.c: 176: i2c2_error_t I2C2_Open(i2c2_address_t address);
      +                          mcc_generated_files/i2c2_master.c: 177: {;mcc_generated_files/i2c2_master.c: 178:     i2
      +                          c2_error_t returnValue = I2C2_BUSY;
  4680  059C  01F2               	clrf	I2C2_Open@returnValue
  4681  059D  0AF2               	incf	I2C2_Open@returnValue,f
  4682                           
  4683                           ;mcc_generated_files/i2c2_master.c: 180:     if(!I2C2_Status.inUse)
  4684  059E  0140               	movlb	0	; select bank0
  4685  059F  193C               	btfsc	_I2C2_Status+28,2
  4686  05A0  2DA2               	goto	u691
  4687  05A1  2DA3               	goto	u690
  4688  05A2                     u691:	
  4689  05A2  2DD3               	goto	l309
  4690  05A3                     u690:	
  4691  05A3                     l2329:	
  4692                           
  4693                           ;mcc_generated_files/i2c2_master.c: 181:     {;mcc_generated_files/i2c2_master.c: 182:  
      +                                 I2C2_Status.address = address;
  4694  05A3  0871               	movf	I2C2_Open@address,w
  4695  05A4  00F0               	movwf	??_I2C2_Open
  4696  05A5  0870               	movf	??_I2C2_Open,w
  4697  05A6  00B6               	movwf	_I2C2_Status+22
  4698  05A7                     l2331:	
  4699                           
  4700                           ;mcc_generated_files/i2c2_master.c: 183:         I2C2_Status.busy = 0;
  4701  05A7  10BC               	bcf	_I2C2_Status+28,1
  4702  05A8                     l2333:	
  4703                           
  4704                           ;mcc_generated_files/i2c2_master.c: 184:         I2C2_Status.inUse = 1;
  4705  05A8  153C               	bsf	_I2C2_Status+28,2
  4706  05A9                     l2335:	
  4707                           
  4708                           ;mcc_generated_files/i2c2_master.c: 185:         I2C2_Status.addressNackCheck = 0;
  4709  05A9  103C               	bcf	_I2C2_Status+28,0
  4710                           
  4711                           ;mcc_generated_files/i2c2_master.c: 186:         I2C2_Status.state = I2C2_RESET;
  4712  05AA  300E               	movlw	14
  4713  05AB  00F0               	movwf	??_I2C2_Open
  4714  05AC  0870               	movf	??_I2C2_Open,w
  4715  05AD  00BA               	movwf	_I2C2_Status+26
  4716                           
  4717                           ;mcc_generated_files/i2c2_master.c: 187:         I2C2_Status.time_out_value = 500;
  4718  05AE  30F4               	movlw	244
  4719  05AF  00B4               	movwf	_I2C2_Status+20
  4720  05B0  3001               	movlw	1
  4721  05B1  00B5               	movwf	_I2C2_Status+21
  4722  05B2                     l2337:	
  4723                           
  4724                           ;mcc_generated_files/i2c2_master.c: 188:         I2C2_Status.bufferFree = 1;
  4725  05B2  15BC               	bsf	_I2C2_Status+28,3
  4726                           
  4727                           ;mcc_generated_files/i2c2_master.c: 191:         I2C2_Status.callbackTable[I2C2_DATA_COM
      +                          PLETE]=I2C2_CallbackReturnStop;
  4728  05B3  301D               	movlw	low _I2C2_CallbackReturnStop
  4729  05B4  00A0               	movwf	_I2C2_Status
  4730  05B5  3003               	movlw	high _I2C2_CallbackReturnStop
  4731  05B6  00A1               	movwf	_I2C2_Status+1
  4732  05B7                     l2339:	
  4733                           
  4734                           ;mcc_generated_files/i2c2_master.c: 192:         I2C2_Status.callbackPayload[I2C2_DATA_C
      +                          OMPLETE] = ((void*)0);
  4735  05B7  01AC               	clrf	low ((_I2C2_Status| 0+12))
  4736  05B8                     l2341:	
  4737                           
  4738                           ;mcc_generated_files/i2c2_master.c: 193:         I2C2_Status.callbackTable[I2C2_WRITE_CO
      +                          LLISION]=I2C2_CallbackReturnStop;
  4739  05B8  301D               	movlw	low _I2C2_CallbackReturnStop
  4740  05B9  00A2               	movwf	low ((_I2C2_Status| 0+2))
  4741  05BA  3003               	movlw	high _I2C2_CallbackReturnStop
  4742  05BB  00A3               	movwf	(low ((_I2C2_Status| 0+2))+1)
  4743                           
  4744                           ;mcc_generated_files/i2c2_master.c: 194:         I2C2_Status.callbackPayload[I2C2_WRITE_
      +                          COLLISION] = ((void*)0);
  4745  05BC  01AD               	clrf	low ((_I2C2_Status| 0+13))
  4746  05BD                     l2343:	
  4747                           
  4748                           ;mcc_generated_files/i2c2_master.c: 195:         I2C2_Status.callbackTable[I2C2_ADDR_NAC
      +                          K]=I2C2_CallbackReturnStop;
  4749  05BD  301D               	movlw	low _I2C2_CallbackReturnStop
  4750  05BE  00A4               	movwf	low ((_I2C2_Status| 0+4))
  4751  05BF  3003               	movlw	high _I2C2_CallbackReturnStop
  4752  05C0  00A5               	movwf	(low ((_I2C2_Status| 0+4))+1)
  4753  05C1                     l2345:	
  4754                           
  4755                           ;mcc_generated_files/i2c2_master.c: 196:         I2C2_Status.callbackPayload[I2C2_ADDR_N
      +                          ACK] = ((void*)0);
  4756  05C1  01AE               	clrf	low ((_I2C2_Status| 0+14))
  4757                           
  4758                           ;mcc_generated_files/i2c2_master.c: 197:         I2C2_Status.callbackTable[I2C2_DATA_NAC
      +                          K]=I2C2_CallbackReturnStop;
  4759  05C2  301D               	movlw	low _I2C2_CallbackReturnStop
  4760  05C3  00A6               	movwf	low ((_I2C2_Status| 0+6))
  4761  05C4  3003               	movlw	high _I2C2_CallbackReturnStop
  4762  05C5  00A7               	movwf	(low ((_I2C2_Status| 0+6))+1)
  4763  05C6                     l2347:	
  4764                           
  4765                           ;mcc_generated_files/i2c2_master.c: 198:         I2C2_Status.callbackPayload[I2C2_DATA_N
      +                          ACK] = ((void*)0);
  4766  05C6  01AF               	clrf	low ((_I2C2_Status| 0+15))
  4767  05C7                     l2349:	
  4768                           
  4769                           ;mcc_generated_files/i2c2_master.c: 199:         I2C2_Status.callbackTable[I2C2_TIMEOUT]
      +                          =I2C2_CallbackReturnReset;
  4770  05C7  301F               	movlw	low _I2C2_CallbackReturnReset
  4771  05C8  00A8               	movwf	low ((_I2C2_Status| 0+8))
  4772  05C9  3003               	movlw	high _I2C2_CallbackReturnReset
  4773  05CA  00A9               	movwf	(low ((_I2C2_Status| 0+8))+1)
  4774                           
  4775                           ;mcc_generated_files/i2c2_master.c: 200:         I2C2_Status.callbackPayload[I2C2_TIMEOU
      +                          T] = ((void*)0);
  4776  05CB  01B0               	clrf	low ((_I2C2_Status| 0+16))
  4777  05CC                     l2351:	
  4778                           
  4779                           ;mcc_generated_files/i2c2_master.c: 202:         I2C2_MasterClearIrq();
  4780  05CC  3183  2321  3185   	fcall	_I2C2_MasterClearIrq
  4781  05CF                     l2353:	
  4782                           
  4783                           ;mcc_generated_files/i2c2_master.c: 203:         I2C2_MasterOpen();
  4784  05CF  3183  23D6  3185   	fcall	_I2C2_MasterOpen
  4785  05D2                     l2355:	
  4786                           
  4787                           ;mcc_generated_files/i2c2_master.c: 204:         returnValue = I2C2_NOERR;
  4788  05D2  01F2               	clrf	I2C2_Open@returnValue
  4789  05D3                     l309:	
  4790                           ;mcc_generated_files/i2c2_master.c: 205:     }
  4791                           
  4792                           
  4793                           ;mcc_generated_files/i2c2_master.c: 206:     return returnValue;
  4794  05D3  0872               	movf	I2C2_Open@returnValue,w
  4795  05D4                     l310:	
  4796  05D4  0008               	return
  4797  05D5                     __end_of_I2C2_Open:	
  4798                           
  4799                           	psect	text11
  4800  03D6                     __ptext11:	
  4801 ;; *************** function _I2C2_MasterOpen *****************
  4802 ;; Defined at:
  4803 ;;		line 543 in file "mcc_generated_files/i2c2_master.c"
  4804 ;; Parameters:    Size  Location     Type
  4805 ;;		None
  4806 ;; Auto vars:     Size  Location     Type
  4807 ;;		None
  4808 ;; Return value:  Size  Location     Type
  4809 ;;                  1    wreg      _Bool 
  4810 ;; Registers used:
  4811 ;;		wreg, status,2
  4812 ;; Tracked objects:
  4813 ;;		On entry : 0/0
  4814 ;;		On exit  : 0/0
  4815 ;;		Unchanged: 0/0
  4816 ;; Data sizes:     COMMON   BANK0   BANK1   BANK2   BANK3   BANK4   BANK5   BANK6   BANK7   BANK8   BANK9  BANK10  BANK1
      +1  BANK12  BANK13  BANK14  BANK15  BANK16  BANK17  BANK18  BANK19  BANK20  BANK21  BANK22  BANK23  BANK24  BANK25
  4817 ;;      Params:         0       0       0       0       0       0       0       0       0       0       0       0       
      +0       0       0       0       0       0       0       0       0       0       0       0       0       0       0
  4818 ;;      Locals:         0       0       0       0       0       0       0       0       0       0       0       0       
      +0       0       0       0       0       0       0       0       0       0       0       0       0       0       0
  4819 ;;      Temps:          0       0       0       0       0       0       0       0       0       0       0       0       
      +0       0       0       0       0       0       0       0       0       0       0       0       0       0       0
  4820 ;;      Totals:         0       0       0       0       0       0       0       0       0       0       0       0       
      +0       0       0       0       0       0       0       0       0       0       0       0       0       0       0
  4821 ;;Total ram usage:        0 bytes
  4822 ;; Hardware stack levels used:    1
  4823 ;; This function calls:
  4824 ;;		Nothing
  4825 ;; This function is called by:
  4826 ;;		_I2C2_Open
  4827 ;; This function uses a non-reentrant model
  4828 ;;
  4829                           
  4830                           
  4831                           ;psect for function _I2C2_MasterOpen
  4832  03D6                     _I2C2_MasterOpen:	
  4833  03D6                     l2301:	
  4834                           ;incstack = 0
  4835                           ; Regs used in _I2C2_MasterOpen: [wreg+status,2]
  4836                           
  4837                           
  4838                           ;mcc_generated_files/i2c2_master.c: 545:     if(!SSP2CON1bits.SSPEN)
  4839  03D6  0143               	movlb	3	; select bank3
  4840  03D7  1A9A               	btfsc	26,5	;volatile
  4841  03D8  2BDA               	goto	u671
  4842  03D9  2BDB               	goto	u670
  4843  03DA                     u671:	
  4844  03DA  2BE2               	goto	l475
  4845  03DB                     u670:	
  4846  03DB                     l2303:	
  4847                           
  4848                           ;mcc_generated_files/i2c2_master.c: 546:     {;mcc_generated_files/i2c2_master.c: 547:  
      +                                 SSP2STAT = 0x00;
  4849  03DB  0199               	clrf	25	;volatile
  4850  03DC                     l2305:	
  4851                           
  4852                           ;mcc_generated_files/i2c2_master.c: 548:         SSP2CON1 = 0x08;
  4853  03DC  3008               	movlw	8
  4854  03DD  009A               	movwf	26	;volatile
  4855  03DE                     l2307:	
  4856                           
  4857                           ;mcc_generated_files/i2c2_master.c: 549:         SSP2CON2 = 0x00;
  4858  03DE  019B               	clrf	27	;volatile
  4859                           
  4860                           ;mcc_generated_files/i2c2_master.c: 550:         SSP2ADD = 0x09;
  4861  03DF  3009               	movlw	9
  4862  03E0  0097               	movwf	23	;volatile
  4863  03E1                     l2309:	
  4864                           
  4865                           ;mcc_generated_files/i2c2_master.c: 551:         SSP2CON1bits.SSPEN = 1;
  4866  03E1  169A               	bsf	26,5	;volatile
  4867  03E2                     l475:	
  4868  03E2  0008               	return
  4869  03E3                     __end_of_I2C2_MasterOpen:	
  4870                           
  4871                           	psect	text12
  4872  0478                     __ptext12:	
  4873 ;; *************** function _I2C2_MasterOperation *****************
  4874 ;; Defined at:
  4875 ;;		line 224 in file "mcc_generated_files/i2c2_master.c"
  4876 ;; Parameters:    Size  Location     Type
  4877 ;;  read            1    wreg     _Bool 
  4878 ;; Auto vars:     Size  Location     Type
  4879 ;;  read            1    3[BANK0 ] _Bool 
  4880 ;;  returnValue     1    4[BANK0 ] enum E353
  4881 ;; Return value:  Size  Location     Type
  4882 ;;                  1    wreg      enum E353
  4883 ;; Registers used:
  4884 ;;		wreg, fsr0l, fsr0h, fsr1l, fsr1h, status,2, status,0, pclath, cstack
  4885 ;; Tracked objects:
  4886 ;;		On entry : 0/0
  4887 ;;		On exit  : 0/0
  4888 ;;		Unchanged: 0/0
  4889 ;; Data sizes:     COMMON   BANK0   BANK1   BANK2   BANK3   BANK4   BANK5   BANK6   BANK7   BANK8   BANK9  BANK10  BANK1
      +1  BANK12  BANK13  BANK14  BANK15  BANK16  BANK17  BANK18  BANK19  BANK20  BANK21  BANK22  BANK23  BANK24  BANK25
  4890 ;;      Params:         0       0       0       0       0       0       0       0       0       0       0       0       
      +0       0       0       0       0       0       0       0       0       0       0       0       0       0       0
  4891 ;;      Locals:         0       2       0       0       0       0       0       0       0       0       0       0       
      +0       0       0       0       0       0       0       0       0       0       0       0       0       0       0
  4892 ;;      Temps:          1       0       0       0       0       0       0       0       0       0       0       0       
      +0       0       0       0       0       0       0       0       0       0       0       0       0       0       0
  4893 ;;      Totals:         1       2       0       0       0       0       0       0       0       0       0       0       
      +0       0       0       0       0       0       0       0       0       0       0       0       0       0       0
  4894 ;;Total ram usage:        3 bytes
  4895 ;; Hardware stack levels used:    1
  4896 ;; Hardware stack levels required when called:    6
  4897 ;; This function calls:
  4898 ;;		_I2C2_MasterStart
  4899 ;;		_I2C2_Poller
  4900 ;; This function is called by:
  4901 ;;		_SendI2CData
  4902 ;;		_I2C2_MasterRead
  4903 ;;		_I2C2_MasterWrite
  4904 ;; This function uses a non-reentrant model
  4905 ;;
  4906                           
  4907                           
  4908                           ;psect for function _I2C2_MasterOperation
  4909  0478                     _I2C2_MasterOperation:	
  4910                           
  4911                           ;incstack = 0
  4912                           ; Regs used in _I2C2_MasterOperation: [wreg-fsr1h+status,2+status,0+pclath+cstack]
  4913                           ;I2C2_MasterOperation@read stored from wreg
  4914  0478  0140               	movlb	0	; select bank0
  4915  0479  00C1               	movwf	I2C2_MasterOperation@read
  4916  047A                     l2377:	
  4917                           
  4918                           ;mcc_generated_files/i2c2_master.c: 224: i2c2_error_t I2C2_MasterOperation(_Bool read);m
      +                          cc_generated_files/i2c2_master.c: 225: {;mcc_generated_files/i2c2_master.c: 226:     i2c
      +                          2_error_t returnValue = I2C2_BUSY;
  4919  047A  01C2               	clrf	I2C2_MasterOperation@returnValue
  4920  047B  0AC2               	incf	I2C2_MasterOperation@returnValue,f
  4921                           
  4922                           ;mcc_generated_files/i2c2_master.c: 227:     if(!I2C2_Status.busy)
  4923  047C  18BC               	btfsc	_I2C2_Status+28,1
  4924  047D  2C7F               	goto	u711
  4925  047E  2C80               	goto	u710
  4926  047F                     u711:	
  4927  047F  2C94               	goto	l2393
  4928  0480                     u710:	
  4929  0480                     l2379:	
  4930                           
  4931                           ;mcc_generated_files/i2c2_master.c: 228:     {;mcc_generated_files/i2c2_master.c: 229:  
      +                                 I2C2_Status.busy = 1;
  4932  0480  14BC               	bsf	_I2C2_Status+28,1
  4933  0481                     l2381:	
  4934                           
  4935                           ;mcc_generated_files/i2c2_master.c: 230:         returnValue = I2C2_NOERR;
  4936  0481  01C2               	clrf	I2C2_MasterOperation@returnValue
  4937  0482                     l2383:	
  4938                           
  4939                           ;mcc_generated_files/i2c2_master.c: 232:         if(read)
  4940  0482  0841               	movf	I2C2_MasterOperation@read,w
  4941  0483  1903               	btfsc	3,2
  4942  0484  2C86               	goto	u721
  4943  0485  2C87               	goto	u720
  4944  0486                     u721:	
  4945  0486  2C8A               	goto	l2387
  4946  0487                     u720:	
  4947  0487                     l2385:	
  4948                           
  4949                           ;mcc_generated_files/i2c2_master.c: 233:         {;mcc_generated_files/i2c2_master.c: 23
      +                          4:             I2C2_Status.state = I2C2_SEND_ADR_READ;
  4950  0487  01BA               	clrf	_I2C2_Status+26
  4951  0488  0ABA               	incf	_I2C2_Status+26,f
  4952                           
  4953                           ;mcc_generated_files/i2c2_master.c: 235:         }
  4954  0489  2C8E               	goto	l2389
  4955  048A                     l2387:	
  4956                           
  4957                           ;mcc_generated_files/i2c2_master.c: 237:         {;mcc_generated_files/i2c2_master.c: 23
      +                          8:             I2C2_Status.state = I2C2_SEND_ADR_WRITE;
  4958  048A  3002               	movlw	2
  4959  048B  00FD               	movwf	??_I2C2_MasterOperation
  4960  048C  087D               	movf	??_I2C2_MasterOperation,w
  4961  048D  00BA               	movwf	_I2C2_Status+26
  4962  048E                     l2389:	
  4963                           
  4964                           ;mcc_generated_files/i2c2_master.c: 240:         I2C2_MasterStart();
  4965  048E  3183  232A  3184   	fcall	_I2C2_MasterStart
  4966  0491                     l2391:	
  4967                           
  4968                           ;mcc_generated_files/i2c2_master.c: 241:         I2C2_Poller();
  4969  0491  3183  23C9  3184   	fcall	_I2C2_Poller
  4970  0494                     l2393:	
  4971                           
  4972                           ;mcc_generated_files/i2c2_master.c: 243:     return returnValue;
  4973  0494  0140               	movlb	0	; select bank0
  4974  0495  0842               	movf	I2C2_MasterOperation@returnValue,w
  4975  0496                     l320:	
  4976  0496  0008               	return
  4977  0497                     __end_of_I2C2_MasterOperation:	
  4978                           
  4979                           	psect	text13
  4980  03C9                     __ptext13:	
  4981 ;; *************** function _I2C2_Poller *****************
  4982 ;; Defined at:
  4983 ;;		line 312 in file "mcc_generated_files/i2c2_master.c"
  4984 ;; Parameters:    Size  Location     Type
  4985 ;;		None
  4986 ;; Auto vars:     Size  Location     Type
  4987 ;;		None
  4988 ;; Return value:  Size  Location     Type
  4989 ;;                  1    wreg      void 
  4990 ;; Registers used:
  4991 ;;		wreg, fsr0l, fsr0h, fsr1l, fsr1h, status,2, status,0, pclath, cstack
  4992 ;; Tracked objects:
  4993 ;;		On entry : 0/0
  4994 ;;		On exit  : 0/0
  4995 ;;		Unchanged: 0/0
  4996 ;; Data sizes:     COMMON   BANK0   BANK1   BANK2   BANK3   BANK4   BANK5   BANK6   BANK7   BANK8   BANK9  BANK10  BANK1
      +1  BANK12  BANK13  BANK14  BANK15  BANK16  BANK17  BANK18  BANK19  BANK20  BANK21  BANK22  BANK23  BANK24  BANK25
  4997 ;;      Params:         0       0       0       0       0       0       0       0       0       0       0       0       
      +0       0       0       0       0       0       0       0       0       0       0       0       0       0       0
  4998 ;;      Locals:         0       0       0       0       0       0       0       0       0       0       0       0       
      +0       0       0       0       0       0       0       0       0       0       0       0       0       0       0
  4999 ;;      Temps:          0       0       0       0       0       0       0       0       0       0       0       0       
      +0       0       0       0       0       0       0       0       0       0       0       0       0       0       0
  5000 ;;      Totals:         0       0       0       0       0       0       0       0       0       0       0       0       
      +0       0       0       0       0       0       0       0       0       0       0       0       0       0       0
  5001 ;;Total ram usage:        0 bytes
  5002 ;; Hardware stack levels used:    1
  5003 ;; Hardware stack levels required when called:    5
  5004 ;; This function calls:
  5005 ;;		_I2C2_MasterFsm
  5006 ;;		_I2C2_MasterWaitForEvent
  5007 ;; This function is called by:
  5008 ;;		_I2C2_MasterOperation
  5009 ;; This function uses a non-reentrant model
  5010 ;;
  5011                           
  5012                           
  5013                           ;psect for function _I2C2_Poller
  5014  03C9                     _I2C2_Poller:	
  5015  03C9                     l2319:	
  5016                           ;incstack = 0
  5017                           ; Regs used in _I2C2_Poller: [wreg-fsr1h+status,2+status,0+pclath+cstack]
  5018                           
  5019                           
  5020                           ;mcc_generated_files/i2c2_master.c: 314:     while(I2C2_Status.busy)
  5021  03C9  2BD0               	goto	l2325
  5022  03CA                     l2321:	
  5023                           
  5024                           ;mcc_generated_files/i2c2_master.c: 315:     {;mcc_generated_files/i2c2_master.c: 316:  
      +                                 I2C2_MasterWaitForEvent();
  5025  03CA  3183  237C  3183   	fcall	_I2C2_MasterWaitForEvent
  5026  03CD                     l2323:	
  5027                           
  5028                           ;mcc_generated_files/i2c2_master.c: 317:         I2C2_MasterFsm();
  5029  03CD  3184  24E6  3183   	fcall	_I2C2_MasterFsm
  5030  03D0                     l2325:	
  5031                           
  5032                           ;mcc_generated_files/i2c2_master.c: 314:     while(I2C2_Status.busy)
  5033  03D0  0140               	movlb	0	; select bank0
  5034  03D1  18BC               	btfsc	_I2C2_Status+28,1
  5035  03D2  2BD4               	goto	u681
  5036  03D3  2BD5               	goto	u680
  5037  03D4                     u681:	
  5038  03D4  2BCA               	goto	l2321
  5039  03D5                     u680:	
  5040  03D5                     l359:	
  5041  03D5  0008               	return
  5042  03D6                     __end_of_I2C2_Poller:	
  5043                           
  5044                           	psect	text14
  5045  037C                     __ptext14:	
  5046 ;; *************** function _I2C2_MasterWaitForEvent *****************
  5047 ;; Defined at:
  5048 ;;		line 650 in file "mcc_generated_files/i2c2_master.c"
  5049 ;; Parameters:    Size  Location     Type
  5050 ;;		None
  5051 ;; Auto vars:     Size  Location     Type
  5052 ;;		None
  5053 ;; Return value:  Size  Location     Type
  5054 ;;                  1    wreg      void 
  5055 ;; Registers used:
  5056 ;;		None
  5057 ;; Tracked objects:
  5058 ;;		On entry : 0/0
  5059 ;;		On exit  : 0/0
  5060 ;;		Unchanged: 0/0
  5061 ;; Data sizes:     COMMON   BANK0   BANK1   BANK2   BANK3   BANK4   BANK5   BANK6   BANK7   BANK8   BANK9  BANK10  BANK1
      +1  BANK12  BANK13  BANK14  BANK15  BANK16  BANK17  BANK18  BANK19  BANK20  BANK21  BANK22  BANK23  BANK24  BANK25
  5062 ;;      Params:         0       0       0       0       0       0       0       0       0       0       0       0       
      +0       0       0       0       0       0       0       0       0       0       0       0       0       0       0
  5063 ;;      Locals:         0       0       0       0       0       0       0       0       0       0       0       0       
      +0       0       0       0       0       0       0       0       0       0       0       0       0       0       0
  5064 ;;      Temps:          0       0       0       0       0       0       0       0       0       0       0       0       
      +0       0       0       0       0       0       0       0       0       0       0       0       0       0       0
  5065 ;;      Totals:         0       0       0       0       0       0       0       0       0       0       0       0       
      +0       0       0       0       0       0       0       0       0       0       0       0       0       0       0
  5066 ;;Total ram usage:        0 bytes
  5067 ;; Hardware stack levels used:    1
  5068 ;; This function calls:
  5069 ;;		Nothing
  5070 ;; This function is called by:
  5071 ;;		_I2C2_Poller
  5072 ;; This function uses a non-reentrant model
  5073 ;;
  5074                           
  5075                           
  5076                           ;psect for function _I2C2_MasterWaitForEvent
  5077  037C                     _I2C2_MasterWaitForEvent:	
  5078  037C                     l532:	
  5079                           ;incstack = 0
  5080                           ; Regs used in _I2C2_MasterWaitForEvent: []
  5081                           ;mcc_generated_files/i2c2_master.c: 652:     while(1)
  5082                           
  5083                           
  5084                           ;mcc_generated_files/i2c2_master.c: 653:     {;mcc_generated_files/i2c2_master.c: 654:  
      +                                 if(PIR3bits.SSP2IF)
  5085  037C  014E               	movlb	14	; select bank14
  5086  037D  1D0F               	btfss	15,2	;volatile
  5087  037E  2B80               	goto	u641
  5088  037F  2B81               	goto	u640
  5089  0380                     u641:	
  5090  0380  2B7C               	goto	l532
  5091  0381                     u640:	
  5092  0381                     l536:	
  5093  0381  0008               	return
  5094  0382                     __end_of_I2C2_MasterWaitForEvent:	
  5095                           
  5096                           	psect	text15
  5097  04E6                     __ptext15:	
  5098 ;; *************** function _I2C2_MasterFsm *****************
  5099 ;; Defined at:
  5100 ;;		line 321 in file "mcc_generated_files/i2c2_master.c"
  5101 ;; Parameters:    Size  Location     Type
  5102 ;;		None
  5103 ;; Auto vars:     Size  Location     Type
  5104 ;;		None
  5105 ;; Return value:  Size  Location     Type
  5106 ;;                  1    wreg      void 
  5107 ;; Registers used:
  5108 ;;		wreg, fsr0l, fsr0h, fsr1l, fsr1h, status,2, status,0, pclath, cstack
  5109 ;; Tracked objects:
  5110 ;;		On entry : 0/0
  5111 ;;		On exit  : 0/0
  5112 ;;		Unchanged: 0/0
  5113 ;; Data sizes:     COMMON   BANK0   BANK1   BANK2   BANK3   BANK4   BANK5   BANK6   BANK7   BANK8   BANK9  BANK10  BANK1
      +1  BANK12  BANK13  BANK14  BANK15  BANK16  BANK17  BANK18  BANK19  BANK20  BANK21  BANK22  BANK23  BANK24  BANK25
  5114 ;;      Params:         0       0       0       0       0       0       0       0       0       0       0       0       
      +0       0       0       0       0       0       0       0       0       0       0       0       0       0       0
  5115 ;;      Locals:         0       0       0       0       0       0       0       0       0       0       0       0       
      +0       0       0       0       0       0       0       0       0       0       0       0       0       0       0
  5116 ;;      Temps:          0       3       0       0       0       0       0       0       0       0       0       0       
      +0       0       0       0       0       0       0       0       0       0       0       0       0       0       0
  5117 ;;      Totals:         0       3       0       0       0       0       0       0       0       0       0       0       
      +0       0       0       0       0       0       0       0       0       0       0       0       0       0       0
  5118 ;;Total ram usage:        3 bytes
  5119 ;; Hardware stack levels used:    1
  5120 ;; Hardware stack levels required when called:    4
  5121 ;; This function calls:
  5122 ;;		_I2C2_DO_ADDRESS_NACK
  5123 ;;		_I2C2_DO_IDLE
  5124 ;;		_I2C2_DO_RCEN
  5125 ;;		_I2C2_DO_RESET
  5126 ;;		_I2C2_DO_RX
  5127 ;;		_I2C2_DO_RX_ACK
  5128 ;;		_I2C2_DO_RX_NACK_RESTART
  5129 ;;		_I2C2_DO_RX_NACK_STOP
  5130 ;;		_I2C2_DO_SEND_ADR_READ
  5131 ;;		_I2C2_DO_SEND_ADR_WRITE
  5132 ;;		_I2C2_DO_SEND_RESTART
  5133 ;;		_I2C2_DO_SEND_RESTART_READ
  5134 ;;		_I2C2_DO_SEND_RESTART_WRITE
  5135 ;;		_I2C2_DO_SEND_STOP
  5136 ;;		_I2C2_DO_TX
  5137 ;;		_I2C2_DO_TX_EMPTY
  5138 ;;		_I2C2_MasterClearIrq
  5139 ;;		_I2C2_MasterIsNack
  5140 ;; This function is called by:
  5141 ;;		_I2C2_Poller
  5142 ;; This function uses a non-reentrant model
  5143 ;;
  5144                           
  5145                           
  5146                           ;psect for function _I2C2_MasterFsm
  5147  04E6                     _I2C2_MasterFsm:	
  5148  04E6                     l2291:	
  5149                           ;incstack = 0
  5150                           ; Regs used in _I2C2_MasterFsm: [wreg-fsr1h+status,2+status,0+pclath+cstack]
  5151                           
  5152                           
  5153                           ;mcc_generated_files/i2c2_master.c: 323:     I2C2_MasterClearIrq();
  5154  04E6  3183  2321  3184   	fcall	_I2C2_MasterClearIrq
  5155  04E9                     l2293:	
  5156                           
  5157                           ;mcc_generated_files/i2c2_master.c: 325:     if(I2C2_Status.addressNackCheck && I2C2_Mas
      +                          terIsNack())
  5158  04E9  0140               	movlb	0	; select bank0
  5159  04EA  1C3C               	btfss	_I2C2_Status+28,0
  5160  04EB  2CED               	goto	u651
  5161  04EC  2CEE               	goto	u650
  5162  04ED                     u651:	
  5163  04ED  2CFB               	goto	l2299
  5164  04EE                     u650:	
  5165  04EE                     l2295:	
  5166  04EE  3183  2376  3184   	fcall	_I2C2_MasterIsNack
  5167  04F1  3A00               	xorlw	0
  5168  04F2  1903               	skipnz
  5169  04F3  2CF5               	goto	u661
  5170  04F4  2CF6               	goto	u660
  5171  04F5                     u661:	
  5172  04F5  2CFB               	goto	l2299
  5173  04F6                     u660:	
  5174  04F6                     l2297:	
  5175                           
  5176                           ;mcc_generated_files/i2c2_master.c: 326:     {;mcc_generated_files/i2c2_master.c: 327:  
      +                                 I2C2_Status.state = I2C2_ADDRESS_NACK;
  5177  04F6  300F               	movlw	15
  5178  04F7  0140               	movlb	0	; select bank0
  5179  04F8  00BE               	movwf	??_I2C2_MasterFsm
  5180  04F9  083E               	movf	??_I2C2_MasterFsm,w
  5181  04FA  00BA               	movwf	_I2C2_Status+26
  5182  04FB                     l2299:	
  5183                           
  5184                           ;mcc_generated_files/i2c2_master.c: 329:     I2C2_Status.state = fsmStateTable[I2C2_Stat
      +                          us.state]();
  5185  04FB  0140               	movlb	0	; select bank0
  5186  04FC  083A               	movf	_I2C2_Status+26,w
  5187  04FD  00BE               	movwf	??_I2C2_MasterFsm
  5188  04FE  01BF               	clrf	??_I2C2_MasterFsm+1
  5189  04FF  35BE               	lslf	??_I2C2_MasterFsm,f
  5190  0500  0DBF               	rlf	??_I2C2_MasterFsm+1,f
  5191  0501  3000               	movlw	low (_fsmStateTable| (0+32768))
  5192  0502  073E               	addwf	??_I2C2_MasterFsm,w
  5193  0503  0084               	movwf	4
  5194  0504  3088               	movlw	high (_fsmStateTable| (0+32768))
  5195  0505  3D3F               	addwfc	??_I2C2_MasterFsm+1,w
  5196  0506  0085               	movwf	5
  5197  0507  3F01               	moviw [1]fsr0
  5198  0508  008A               	movwf	10
  5199  0509  3F00               	moviw [0]fsr0
  5200  050A  000A               	callw
  5201  050B  3184               	pagesel	$
  5202  050C  0140               	movlb	0	; select bank0
  5203  050D  00C0               	movwf	??_I2C2_MasterFsm+2
  5204  050E  0840               	movf	??_I2C2_MasterFsm+2,w
  5205  050F  00BA               	movwf	_I2C2_Status+26
  5206  0510                     l363:	
  5207  0510  0008               	return
  5208  0511                     __end_of_I2C2_MasterFsm:	
  5209                           
  5210                           	psect	text16
  5211  0511                     __ptext16:	
  5212 ;; *************** function _I2C2_DO_ADDRESS_NACK *****************
  5213 ;; Defined at:
  5214 ;;		line 500 in file "mcc_generated_files/i2c2_master.c"
  5215 ;; Parameters:    Size  Location     Type
  5216 ;;		None
  5217 ;; Auto vars:     Size  Location     Type
  5218 ;;		None
  5219 ;; Return value:  Size  Location     Type
  5220 ;;                  1    wreg      enum E11284
  5221 ;; Registers used:
  5222 ;;		wreg, fsr0l, fsr0h, fsr1l, fsr1h, status,2, status,0, pclath, cstack
  5223 ;; Tracked objects:
  5224 ;;		On entry : 0/0
  5225 ;;		On exit  : 0/0
  5226 ;;		Unchanged: 0/0
  5227 ;; Data sizes:     COMMON   BANK0   BANK1   BANK2   BANK3   BANK4   BANK5   BANK6   BANK7   BANK8   BANK9  BANK10  BANK1
      +1  BANK12  BANK13  BANK14  BANK15  BANK16  BANK17  BANK18  BANK19  BANK20  BANK21  BANK22  BANK23  BANK24  BANK25
  5228 ;;      Params:         0       0       0       0       0       0       0       0       0       0       0       0       
      +0       0       0       0       0       0       0       0       0       0       0       0       0       0       0
  5229 ;;      Locals:         0       0       0       0       0       0       0       0       0       0       0       0       
      +0       0       0       0       0       0       0       0       0       0       0       0       0       0       0
  5230 ;;      Temps:          3       0       0       0       0       0       0       0       0       0       0       0       
      +0       0       0       0       0       0       0       0       0       0       0       0       0       0       0
  5231 ;;      Totals:         3       0       0       0       0       0       0       0       0       0       0       0       
      +0       0       0       0       0       0       0       0       0       0       0       0       0       0       0
  5232 ;;Total ram usage:        3 bytes
  5233 ;; Hardware stack levels used:    1
  5234 ;; Hardware stack levels required when called:    3
  5235 ;; This function calls:
  5236 ;;		Absolute function
  5237 ;;		_I2C2_CallbackReturnReset
  5238 ;;		_I2C2_CallbackReturnStop
  5239 ;;		_I2C2_DO_SEND_RESTART
  5240 ;;		_I2C2_DO_SEND_STOP
  5241 ;;		_rd1RegCompleteHandler
  5242 ;;		_rd2RegCompleteHandler
  5243 ;;		_rdBlkRegCompleteHandler
  5244 ;;		_wr1RegCompleteHandler
  5245 ;;		_wr2RegCompleteHandler
  5246 ;; This function is called by:
  5247 ;;		_I2C2_MasterFsm
  5248 ;; This function uses a non-reentrant model
  5249 ;;
  5250                           
  5251                           
  5252                           ;psect for function _I2C2_DO_ADDRESS_NACK
  5253  0511                     _I2C2_DO_ADDRESS_NACK:	
  5254  0511                     l2269:	
  5255                           ;incstack = 0
  5256                           ; Regs used in _I2C2_DO_ADDRESS_NACK: [wreg-fsr1h+status,2+status,0+pclath+cstack]
  5257                           
  5258                           
  5259                           ;mcc_generated_files/i2c2_master.c: 502:     I2C2_Status.addressNackCheck = 0;
  5260  0511  0140               	movlb	0	; select bank0
  5261  0512  103C               	bcf	_I2C2_Status+28,0
  5262  0513                     l2271:	
  5263                           
  5264                           ;mcc_generated_files/i2c2_master.c: 503:     I2C2_Status.error = I2C2_FAIL;
  5265  0513  3002               	movlw	2
  5266  0514  00FA               	movwf	??_I2C2_DO_ADDRESS_NACK
  5267  0515  087A               	movf	??_I2C2_DO_ADDRESS_NACK,w
  5268  0516  00BB               	movwf	_I2C2_Status+27
  5269                           
  5270                           ;mcc_generated_files/i2c2_master.c: 504:     switch(I2C2_Status.callbackTable[I2C2_ADDR_
      +                          NACK](I2C2_Status.callbackPayload[I2C2_ADDR_NACK]))
  5271  0517  2D20               	goto	l2283
  5272  0518                     l2273:	
  5273                           
  5274                           ;mcc_generated_files/i2c2_master.c: 508:             return I2C2_DO_SEND_RESTART();
  5275  0518  3183  2358  3185   	fcall	_I2C2_DO_SEND_RESTART
  5276  051B  2D3C               	goto	l454
  5277  051C                     l2277:	
  5278                           
  5279                           ;mcc_generated_files/i2c2_master.c: 510:             return I2C2_DO_SEND_STOP();
  5280  051C  3183  235D  3185   	fcall	_I2C2_DO_SEND_STOP
  5281  051F  2D3C               	goto	l454
  5282  0520                     l2283:	
  5283  0520  082E               	movf	low ((_I2C2_Status| 0+14)),w
  5284  0521  00FA               	movwf	??_I2C2_DO_ADDRESS_NACK
  5285  0522  087A               	movf	??_I2C2_DO_ADDRESS_NACK,w
  5286  0523  00F9               	movwf	I2C2_CallbackReturnReset@funPtr
  5287  0524  3004               	movlw	4
  5288  0525  3E20               	addlw	(low (_I2C2_Status| 0))& (0+255)
  5289  0526  0086               	movwf	6
  5290  0527  0187               	clrf	7
  5291  0528  3F41               	moviw [1]fsr1
  5292  0529  008A               	movwf	10
  5293  052A  3F40               	moviw [0]fsr1
  5294  052B  000A               	callw
  5295  052C  3185               	pagesel	$
  5296  052D  00FB               	movwf	??_I2C2_DO_ADDRESS_NACK+1
  5297  052E  01FC               	clrf	??_I2C2_DO_ADDRESS_NACK+2
  5298                           
  5299                           ; Switch on 2 bytes has been partitioned into a top level switch of size 1, and 1 sub-sw
      +                          itches
  5300                           ; Switch size 1, requested type "simple"
  5301                           ; Number of cases is 1, Range of values is 0 to 0
  5302                           ; switch strategies available:
  5303                           ; Name         Instructions Cycles
  5304                           ; simple_byte            4     3 (average)
  5305                           ; direct_byte            8     6 (fixed)
  5306                           ; jumptable            260     6 (fixed)
  5307                           ;	Chosen strategy is simple_byte
  5308  052F  087C               	movf	??_I2C2_DO_ADDRESS_NACK+2,w
  5309  0530  3A00               	xorlw	0	; case 0
  5310  0531  1903               	skipnz
  5311  0532  2D34               	goto	l2815
  5312  0533  2D1C               	goto	l2277
  5313  0534                     l2815:	
  5314                           
  5315                           ; Switch size 1, requested type "simple"
  5316                           ; Number of cases is 2, Range of values is 2 to 3
  5317                           ; switch strategies available:
  5318                           ; Name         Instructions Cycles
  5319                           ; simple_byte            7     4 (average)
  5320                           ; direct_byte           13     9 (fixed)
  5321                           ; jumptable            263     9 (fixed)
  5322                           ;	Chosen strategy is simple_byte
  5323  0534  087B               	movf	??_I2C2_DO_ADDRESS_NACK+1,w
  5324  0535  3A02               	xorlw	2	; case 2
  5325  0536  1903               	skipnz
  5326  0537  2D18               	goto	l2273
  5327  0538  3A01               	xorlw	1	; case 3
  5328  0539  1903               	skipnz
  5329  053A  2D18               	goto	l2273
  5330  053B  2D1C               	goto	l2277
  5331  053C                     l454:	
  5332  053C  0008               	return
  5333  053D                     __end_of_I2C2_DO_ADDRESS_NACK:	
  5334                           
  5335                           	psect	text17
  5336  0371                     __ptext17:	
  5337 ;; *************** function _I2C2_DO_RESET *****************
  5338 ;; Defined at:
  5339 ;;		line 494 in file "mcc_generated_files/i2c2_master.c"
  5340 ;; Parameters:    Size  Location     Type
  5341 ;;		None
  5342 ;; Auto vars:     Size  Location     Type
  5343 ;;		None
  5344 ;; Return value:  Size  Location     Type
  5345 ;;                  1    wreg      enum E11284
  5346 ;; Registers used:
  5347 ;;		wreg, status,2
  5348 ;; Tracked objects:
  5349 ;;		On entry : 0/0
  5350 ;;		On exit  : 0/0
  5351 ;;		Unchanged: 0/0
  5352 ;; Data sizes:     COMMON   BANK0   BANK1   BANK2   BANK3   BANK4   BANK5   BANK6   BANK7   BANK8   BANK9  BANK10  BANK1
      +1  BANK12  BANK13  BANK14  BANK15  BANK16  BANK17  BANK18  BANK19  BANK20  BANK21  BANK22  BANK23  BANK24  BANK25
  5353 ;;      Params:         0       0       0       0       0       0       0       0       0       0       0       0       
      +0       0       0       0       0       0       0       0       0       0       0       0       0       0       0
  5354 ;;      Locals:         0       0       0       0       0       0       0       0       0       0       0       0       
      +0       0       0       0       0       0       0       0       0       0       0       0       0       0       0
  5355 ;;      Temps:          0       0       0       0       0       0       0       0       0       0       0       0       
      +0       0       0       0       0       0       0       0       0       0       0       0       0       0       0
  5356 ;;      Totals:         0       0       0       0       0       0       0       0       0       0       0       0       
      +0       0       0       0       0       0       0       0       0       0       0       0       0       0       0
  5357 ;;Total ram usage:        0 bytes
  5358 ;; Hardware stack levels used:    1
  5359 ;; This function calls:
  5360 ;;		Nothing
  5361 ;; This function is called by:
  5362 ;;		_I2C2_MasterFsm
  5363 ;; This function uses a non-reentrant model
  5364 ;;
  5365                           
  5366                           
  5367                           ;psect for function _I2C2_DO_RESET
  5368  0371                     _I2C2_DO_RESET:	
  5369  0371                     l2261:	
  5370                           ;incstack = 0
  5371                           ; Regs used in _I2C2_DO_RESET: [wreg+status,2]
  5372                           
  5373                           
  5374                           ;mcc_generated_files/i2c2_master.c: 496:     I2C2_Status.busy = 0;
  5375  0371  0140               	movlb	0	; select bank0
  5376  0372  10BC               	bcf	_I2C2_Status+28,1
  5377  0373                     l2263:	
  5378                           
  5379                           ;mcc_generated_files/i2c2_master.c: 497:     I2C2_Status.error = I2C2_NOERR;
  5380  0373  01BB               	clrf	_I2C2_Status+27
  5381  0374                     l2265:	
  5382                           
  5383                           ;mcc_generated_files/i2c2_master.c: 498:     return I2C2_RESET;
  5384  0374  300E               	movlw	14
  5385  0375                     l448:	
  5386  0375  0008               	return
  5387  0376                     __end_of_I2C2_DO_RESET:	
  5388                           
  5389                           	psect	text18
  5390  036C                     __ptext18:	
  5391 ;; *************** function _I2C2_DO_RX_NACK_RESTART *****************
  5392 ;; Defined at:
  5393 ;;		line 488 in file "mcc_generated_files/i2c2_master.c"
  5394 ;; Parameters:    Size  Location     Type
  5395 ;;		None
  5396 ;; Auto vars:     Size  Location     Type
  5397 ;;		None
  5398 ;; Return value:  Size  Location     Type
  5399 ;;                  1    wreg      enum E11284
  5400 ;; Registers used:
  5401 ;;		wreg, status,2, status,0, pclath, cstack
  5402 ;; Tracked objects:
  5403 ;;		On entry : 0/0
  5404 ;;		On exit  : 0/0
  5405 ;;		Unchanged: 0/0
  5406 ;; Data sizes:     COMMON   BANK0   BANK1   BANK2   BANK3   BANK4   BANK5   BANK6   BANK7   BANK8   BANK9  BANK10  BANK1
      +1  BANK12  BANK13  BANK14  BANK15  BANK16  BANK17  BANK18  BANK19  BANK20  BANK21  BANK22  BANK23  BANK24  BANK25
  5407 ;;      Params:         0       0       0       0       0       0       0       0       0       0       0       0       
      +0       0       0       0       0       0       0       0       0       0       0       0       0       0       0
  5408 ;;      Locals:         0       0       0       0       0       0       0       0       0       0       0       0       
      +0       0       0       0       0       0       0       0       0       0       0       0       0       0       0
  5409 ;;      Temps:          0       0       0       0       0       0       0       0       0       0       0       0       
      +0       0       0       0       0       0       0       0       0       0       0       0       0       0       0
  5410 ;;      Totals:         0       0       0       0       0       0       0       0       0       0       0       0       
      +0       0       0       0       0       0       0       0       0       0       0       0       0       0       0
  5411 ;;Total ram usage:        0 bytes
  5412 ;; Hardware stack levels used:    1
  5413 ;; Hardware stack levels required when called:    1
  5414 ;; This function calls:
  5415 ;;		_I2C2_MasterSendNack
  5416 ;; This function is called by:
  5417 ;;		_I2C2_DO_RX
  5418 ;;		_I2C2_MasterFsm
  5419 ;; This function uses a non-reentrant model
  5420 ;;
  5421                           
  5422                           
  5423                           ;psect for function _I2C2_DO_RX_NACK_RESTART
  5424  036C                     _I2C2_DO_RX_NACK_RESTART:	
  5425  036C                     l2103:	
  5426                           ;incstack = 0
  5427                           ; Regs used in _I2C2_DO_RX_NACK_RESTART: [wreg+status,2+status,0+pclath+cstack]
  5428                           
  5429                           
  5430                           ;mcc_generated_files/i2c2_master.c: 490:     I2C2_MasterSendNack();
  5431  036C  3183  233C  3183   	fcall	_I2C2_MasterSendNack
  5432  036F                     l2105:	
  5433                           
  5434                           ;mcc_generated_files/i2c2_master.c: 491:     return I2C2_SEND_RESTART;
  5435  036F  3009               	movlw	9
  5436  0370                     l445:	
  5437  0370  0008               	return
  5438  0371                     __end_of_I2C2_DO_RX_NACK_RESTART:	
  5439                           
  5440                           	psect	text19
  5441  0367                     __ptext19:	
  5442 ;; *************** function _I2C2_DO_RX_NACK_STOP *****************
  5443 ;; Defined at:
  5444 ;;		line 482 in file "mcc_generated_files/i2c2_master.c"
  5445 ;; Parameters:    Size  Location     Type
  5446 ;;		None
  5447 ;; Auto vars:     Size  Location     Type
  5448 ;;		None
  5449 ;; Return value:  Size  Location     Type
  5450 ;;                  1    wreg      enum E11284
  5451 ;; Registers used:
  5452 ;;		wreg, status,2, status,0, pclath, cstack
  5453 ;; Tracked objects:
  5454 ;;		On entry : 0/0
  5455 ;;		On exit  : 0/0
  5456 ;;		Unchanged: 0/0
  5457 ;; Data sizes:     COMMON   BANK0   BANK1   BANK2   BANK3   BANK4   BANK5   BANK6   BANK7   BANK8   BANK9  BANK10  BANK1
      +1  BANK12  BANK13  BANK14  BANK15  BANK16  BANK17  BANK18  BANK19  BANK20  BANK21  BANK22  BANK23  BANK24  BANK25
  5458 ;;      Params:         0       0       0       0       0       0       0       0       0       0       0       0       
      +0       0       0       0       0       0       0       0       0       0       0       0       0       0       0
  5459 ;;      Locals:         0       0       0       0       0       0       0       0       0       0       0       0       
      +0       0       0       0       0       0       0       0       0       0       0       0       0       0       0
  5460 ;;      Temps:          0       0       0       0       0       0       0       0       0       0       0       0       
      +0       0       0       0       0       0       0       0       0       0       0       0       0       0       0
  5461 ;;      Totals:         0       0       0       0       0       0       0       0       0       0       0       0       
      +0       0       0       0       0       0       0       0       0       0       0       0       0       0       0
  5462 ;;Total ram usage:        0 bytes
  5463 ;; Hardware stack levels used:    1
  5464 ;; Hardware stack levels required when called:    1
  5465 ;; This function calls:
  5466 ;;		_I2C2_MasterSendNack
  5467 ;; This function is called by:
  5468 ;;		_I2C2_DO_RX
  5469 ;;		_I2C2_MasterFsm
  5470 ;; This function uses a non-reentrant model
  5471 ;;
  5472                           
  5473                           
  5474                           ;psect for function _I2C2_DO_RX_NACK_STOP
  5475  0367                     _I2C2_DO_RX_NACK_STOP:	
  5476  0367                     l2109:	
  5477                           ;incstack = 0
  5478                           ; Regs used in _I2C2_DO_RX_NACK_STOP: [wreg+status,2+status,0+pclath+cstack]
  5479                           
  5480                           
  5481                           ;mcc_generated_files/i2c2_master.c: 484:     I2C2_MasterSendNack();
  5482  0367  3183  233C  3183   	fcall	_I2C2_MasterSendNack
  5483  036A                     l2111:	
  5484                           
  5485                           ;mcc_generated_files/i2c2_master.c: 485:     return I2C2_SEND_STOP;
  5486  036A  300A               	movlw	10
  5487  036B                     l442:	
  5488  036B  0008               	return
  5489  036C                     __end_of_I2C2_DO_RX_NACK_STOP:	
  5490                           
  5491                           	psect	text20
  5492  0362                     __ptext20:	
  5493 ;; *************** function _I2C2_DO_RX_ACK *****************
  5494 ;; Defined at:
  5495 ;;		line 475 in file "mcc_generated_files/i2c2_master.c"
  5496 ;; Parameters:    Size  Location     Type
  5497 ;;		None
  5498 ;; Auto vars:     Size  Location     Type
  5499 ;;		None
  5500 ;; Return value:  Size  Location     Type
  5501 ;;                  1    wreg      enum E11284
  5502 ;; Registers used:
  5503 ;;		wreg, status,2, status,0, pclath, cstack
  5504 ;; Tracked objects:
  5505 ;;		On entry : 0/0
  5506 ;;		On exit  : 0/0
  5507 ;;		Unchanged: 0/0
  5508 ;; Data sizes:     COMMON   BANK0   BANK1   BANK2   BANK3   BANK4   BANK5   BANK6   BANK7   BANK8   BANK9  BANK10  BANK1
      +1  BANK12  BANK13  BANK14  BANK15  BANK16  BANK17  BANK18  BANK19  BANK20  BANK21  BANK22  BANK23  BANK24  BANK25
  5509 ;;      Params:         0       0       0       0       0       0       0       0       0       0       0       0       
      +0       0       0       0       0       0       0       0       0       0       0       0       0       0       0
  5510 ;;      Locals:         0       0       0       0       0       0       0       0       0       0       0       0       
      +0       0       0       0       0       0       0       0       0       0       0       0       0       0       0
  5511 ;;      Temps:          0       0       0       0       0       0       0       0       0       0       0       0       
      +0       0       0       0       0       0       0       0       0       0       0       0       0       0       0
  5512 ;;      Totals:         0       0       0       0       0       0       0       0       0       0       0       0       
      +0       0       0       0       0       0       0       0       0       0       0       0       0       0       0
  5513 ;;Total ram usage:        0 bytes
  5514 ;; Hardware stack levels used:    1
  5515 ;; Hardware stack levels required when called:    1
  5516 ;; This function calls:
  5517 ;;		_I2C2_MasterSendAck
  5518 ;; This function is called by:
  5519 ;;		_I2C2_MasterFsm
  5520 ;; This function uses a non-reentrant model
  5521 ;;
  5522                           
  5523                           
  5524                           ;psect for function _I2C2_DO_RX_ACK
  5525  0362                     _I2C2_DO_RX_ACK:	
  5526  0362                     l2255:	
  5527                           ;incstack = 0
  5528                           ; Regs used in _I2C2_DO_RX_ACK: [wreg+status,2+status,0+pclath+cstack]
  5529                           
  5530                           
  5531                           ;mcc_generated_files/i2c2_master.c: 477:     I2C2_MasterSendAck();
  5532  0362  3183  2340  3183   	fcall	_I2C2_MasterSendAck
  5533  0365                     l2257:	
  5534                           
  5535                           ;mcc_generated_files/i2c2_master.c: 478:     return I2C2_RCEN;
  5536  0365  3005               	movlw	5
  5537  0366                     l439:	
  5538  0366  0008               	return
  5539  0367                     __end_of_I2C2_DO_RX_ACK:	
  5540                           
  5541                           	psect	text21
  5542  035D                     __ptext21:	
  5543 ;; *************** function _I2C2_DO_SEND_STOP *****************
  5544 ;; Defined at:
  5545 ;;		line 469 in file "mcc_generated_files/i2c2_master.c"
  5546 ;; Parameters:    Size  Location     Type
  5547 ;;		None
  5548 ;; Auto vars:     Size  Location     Type
  5549 ;;		None
  5550 ;; Return value:  Size  Location     Type
  5551 ;;                  1    wreg      enum E11284
  5552 ;; Registers used:
  5553 ;;		wreg, status,2, status,0, pclath, cstack
  5554 ;; Tracked objects:
  5555 ;;		On entry : 0/0
  5556 ;;		On exit  : 0/0
  5557 ;;		Unchanged: 0/0
  5558 ;; Data sizes:     COMMON   BANK0   BANK1   BANK2   BANK3   BANK4   BANK5   BANK6   BANK7   BANK8   BANK9  BANK10  BANK1
      +1  BANK12  BANK13  BANK14  BANK15  BANK16  BANK17  BANK18  BANK19  BANK20  BANK21  BANK22  BANK23  BANK24  BANK25
  5559 ;;      Params:         0       0       0       0       0       0       0       0       0       0       0       0       
      +0       0       0       0       0       0       0       0       0       0       0       0       0       0       0
  5560 ;;      Locals:         0       0       0       0       0       0       0       0       0       0       0       0       
      +0       0       0       0       0       0       0       0       0       0       0       0       0       0       0
  5561 ;;      Temps:          0       0       0       0       0       0       0       0       0       0       0       0       
      +0       0       0       0       0       0       0       0       0       0       0       0       0       0       0
  5562 ;;      Totals:         0       0       0       0       0       0       0       0       0       0       0       0       
      +0       0       0       0       0       0       0       0       0       0       0       0       0       0       0
  5563 ;;Total ram usage:        0 bytes
  5564 ;; Hardware stack levels used:    1
  5565 ;; Hardware stack levels required when called:    1
  5566 ;; This function calls:
  5567 ;;		_I2C2_MasterStop
  5568 ;; This function is called by:
  5569 ;;		_I2C2_DO_TX
  5570 ;;		_I2C2_DO_TX_EMPTY
  5571 ;;		_I2C2_DO_ADDRESS_NACK
  5572 ;;		_I2C2_MasterFsm
  5573 ;; This function uses a non-reentrant model
  5574 ;;
  5575                           
  5576                           
  5577                           ;psect for function _I2C2_DO_SEND_STOP
  5578  035D                     _I2C2_DO_SEND_STOP:	
  5579  035D                     l2091:	
  5580                           ;incstack = 0
  5581                           ; Regs used in _I2C2_DO_SEND_STOP: [wreg+status,2+status,0+pclath+cstack]
  5582                           
  5583                           
  5584                           ;mcc_generated_files/i2c2_master.c: 471:     I2C2_MasterStop();
  5585  035D  3183  2330  3183   	fcall	_I2C2_MasterStop
  5586  0360                     l2093:	
  5587                           
  5588                           ;mcc_generated_files/i2c2_master.c: 472:     return I2C2_IDLE;
  5589  0360  3000               	movlw	0
  5590  0361                     l436:	
  5591  0361  0008               	return
  5592  0362                     __end_of_I2C2_DO_SEND_STOP:	
  5593                           
  5594                           	psect	text22
  5595  0358                     __ptext22:	
  5596 ;; *************** function _I2C2_DO_SEND_RESTART *****************
  5597 ;; Defined at:
  5598 ;;		line 463 in file "mcc_generated_files/i2c2_master.c"
  5599 ;; Parameters:    Size  Location     Type
  5600 ;;		None
  5601 ;; Auto vars:     Size  Location     Type
  5602 ;;		None
  5603 ;; Return value:  Size  Location     Type
  5604 ;;                  1    wreg      enum E11284
  5605 ;; Registers used:
  5606 ;;		wreg, status,2, status,0, pclath, cstack
  5607 ;; Tracked objects:
  5608 ;;		On entry : 0/0
  5609 ;;		On exit  : 0/0
  5610 ;;		Unchanged: 0/0
  5611 ;; Data sizes:     COMMON   BANK0   BANK1   BANK2   BANK3   BANK4   BANK5   BANK6   BANK7   BANK8   BANK9  BANK10  BANK1
      +1  BANK12  BANK13  BANK14  BANK15  BANK16  BANK17  BANK18  BANK19  BANK20  BANK21  BANK22  BANK23  BANK24  BANK25
  5612 ;;      Params:         0       0       0       0       0       0       0       0       0       0       0       0       
      +0       0       0       0       0       0       0       0       0       0       0       0       0       0       0
  5613 ;;      Locals:         0       0       0       0       0       0       0       0       0       0       0       0       
      +0       0       0       0       0       0       0       0       0       0       0       0       0       0       0
  5614 ;;      Temps:          0       0       0       0       0       0       0       0       0       0       0       0       
      +0       0       0       0       0       0       0       0       0       0       0       0       0       0       0
  5615 ;;      Totals:         0       0       0       0       0       0       0       0       0       0       0       0       
      +0       0       0       0       0       0       0       0       0       0       0       0       0       0       0
  5616 ;;Total ram usage:        0 bytes
  5617 ;; Hardware stack levels used:    1
  5618 ;; Hardware stack levels required when called:    1
  5619 ;; This function calls:
  5620 ;;		_I2C2_MasterEnableRestart
  5621 ;; This function is called by:
  5622 ;;		_I2C2_DO_TX_EMPTY
  5623 ;;		_I2C2_DO_ADDRESS_NACK
  5624 ;;		_I2C2_MasterFsm
  5625 ;; This function uses a non-reentrant model
  5626 ;;
  5627                           
  5628                           
  5629                           ;psect for function _I2C2_DO_SEND_RESTART
  5630  0358                     _I2C2_DO_SEND_RESTART:	
  5631  0358                     l2117:	
  5632                           ;incstack = 0
  5633                           ; Regs used in _I2C2_DO_SEND_RESTART: [wreg+status,2+status,0+pclath+cstack]
  5634                           
  5635                           
  5636                           ;mcc_generated_files/i2c2_master.c: 465:     I2C2_MasterEnableRestart();
  5637  0358  3183  232D  3183   	fcall	_I2C2_MasterEnableRestart
  5638  035B                     l2119:	
  5639                           
  5640                           ;mcc_generated_files/i2c2_master.c: 466:     return I2C2_SEND_ADR_READ;
  5641  035B  3001               	movlw	1
  5642  035C                     l433:	
  5643  035C  0008               	return
  5644  035D                     __end_of_I2C2_DO_SEND_RESTART:	
  5645                           
  5646                           	psect	text23
  5647  0353                     __ptext23:	
  5648 ;; *************** function _I2C2_DO_SEND_RESTART_WRITE *****************
  5649 ;; Defined at:
  5650 ;;		line 456 in file "mcc_generated_files/i2c2_master.c"
  5651 ;; Parameters:    Size  Location     Type
  5652 ;;		None
  5653 ;; Auto vars:     Size  Location     Type
  5654 ;;		None
  5655 ;; Return value:  Size  Location     Type
  5656 ;;                  1    wreg      enum E11284
  5657 ;; Registers used:
  5658 ;;		wreg, status,2, status,0, pclath, cstack
  5659 ;; Tracked objects:
  5660 ;;		On entry : 0/0
  5661 ;;		On exit  : 0/0
  5662 ;;		Unchanged: 0/0
  5663 ;; Data sizes:     COMMON   BANK0   BANK1   BANK2   BANK3   BANK4   BANK5   BANK6   BANK7   BANK8   BANK9  BANK10  BANK1
      +1  BANK12  BANK13  BANK14  BANK15  BANK16  BANK17  BANK18  BANK19  BANK20  BANK21  BANK22  BANK23  BANK24  BANK25
  5664 ;;      Params:         0       0       0       0       0       0       0       0       0       0       0       0       
      +0       0       0       0       0       0       0       0       0       0       0       0       0       0       0
  5665 ;;      Locals:         0       0       0       0       0       0       0       0       0       0       0       0       
      +0       0       0       0       0       0       0       0       0       0       0       0       0       0       0
  5666 ;;      Temps:          0       0       0       0       0       0       0       0       0       0       0       0       
      +0       0       0       0       0       0       0       0       0       0       0       0       0       0       0
  5667 ;;      Totals:         0       0       0       0       0       0       0       0       0       0       0       0       
      +0       0       0       0       0       0       0       0       0       0       0       0       0       0       0
  5668 ;;Total ram usage:        0 bytes
  5669 ;; Hardware stack levels used:    1
  5670 ;; Hardware stack levels required when called:    1
  5671 ;; This function calls:
  5672 ;;		_I2C2_MasterEnableRestart
  5673 ;; This function is called by:
  5674 ;;		_I2C2_DO_TX
  5675 ;;		_I2C2_MasterFsm
  5676 ;; This function uses a non-reentrant model
  5677 ;;
  5678                           
  5679                           
  5680                           ;psect for function _I2C2_DO_SEND_RESTART_WRITE
  5681  0353                     _I2C2_DO_SEND_RESTART_WRITE:	
  5682  0353                     l2085:	
  5683                           ;incstack = 0
  5684                           ; Regs used in _I2C2_DO_SEND_RESTART_WRITE: [wreg+status,2+status,0+pclath+cstack]
  5685                           
  5686                           
  5687                           ;mcc_generated_files/i2c2_master.c: 458:     I2C2_MasterEnableRestart();
  5688  0353  3183  232D  3183   	fcall	_I2C2_MasterEnableRestart
  5689  0356                     l2087:	
  5690                           
  5691                           ;mcc_generated_files/i2c2_master.c: 459:     return I2C2_SEND_ADR_WRITE;
  5692  0356  3002               	movlw	2
  5693  0357                     l430:	
  5694  0357  0008               	return
  5695  0358                     __end_of_I2C2_DO_SEND_RESTART_WRITE:	
  5696                           
  5697                           	psect	text24
  5698  034E                     __ptext24:	
  5699 ;; *************** function _I2C2_DO_SEND_RESTART_READ *****************
  5700 ;; Defined at:
  5701 ;;		line 450 in file "mcc_generated_files/i2c2_master.c"
  5702 ;; Parameters:    Size  Location     Type
  5703 ;;		None
  5704 ;; Auto vars:     Size  Location     Type
  5705 ;;		None
  5706 ;; Return value:  Size  Location     Type
  5707 ;;                  1    wreg      enum E11284
  5708 ;; Registers used:
  5709 ;;		wreg, status,2, status,0, pclath, cstack
  5710 ;; Tracked objects:
  5711 ;;		On entry : 0/0
  5712 ;;		On exit  : 0/0
  5713 ;;		Unchanged: 0/0
  5714 ;; Data sizes:     COMMON   BANK0   BANK1   BANK2   BANK3   BANK4   BANK5   BANK6   BANK7   BANK8   BANK9  BANK10  BANK1
      +1  BANK12  BANK13  BANK14  BANK15  BANK16  BANK17  BANK18  BANK19  BANK20  BANK21  BANK22  BANK23  BANK24  BANK25
  5715 ;;      Params:         0       0       0       0       0       0       0       0       0       0       0       0       
      +0       0       0       0       0       0       0       0       0       0       0       0       0       0       0
  5716 ;;      Locals:         0       0       0       0       0       0       0       0       0       0       0       0       
      +0       0       0       0       0       0       0       0       0       0       0       0       0       0       0
  5717 ;;      Temps:          0       0       0       0       0       0       0       0       0       0       0       0       
      +0       0       0       0       0       0       0       0       0       0       0       0       0       0       0
  5718 ;;      Totals:         0       0       0       0       0       0       0       0       0       0       0       0       
      +0       0       0       0       0       0       0       0       0       0       0       0       0       0       0
  5719 ;;Total ram usage:        0 bytes
  5720 ;; Hardware stack levels used:    1
  5721 ;; Hardware stack levels required when called:    1
  5722 ;; This function calls:
  5723 ;;		_I2C2_MasterEnableRestart
  5724 ;; This function is called by:
  5725 ;;		_I2C2_DO_TX
  5726 ;;		_I2C2_MasterFsm
  5727 ;; This function uses a non-reentrant model
  5728 ;;
  5729                           
  5730                           
  5731                           ;psect for function _I2C2_DO_SEND_RESTART_READ
  5732  034E                     _I2C2_DO_SEND_RESTART_READ:	
  5733  034E                     l2079:	
  5734                           ;incstack = 0
  5735                           ; Regs used in _I2C2_DO_SEND_RESTART_READ: [wreg+status,2+status,0+pclath+cstack]
  5736                           
  5737                           
  5738                           ;mcc_generated_files/i2c2_master.c: 452:     I2C2_MasterEnableRestart();
  5739  034E  3183  232D  3183   	fcall	_I2C2_MasterEnableRestart
  5740  0351                     l2081:	
  5741                           
  5742                           ;mcc_generated_files/i2c2_master.c: 453:     return I2C2_SEND_ADR_READ;
  5743  0351  3001               	movlw	1
  5744  0352                     l427:	
  5745  0352  0008               	return
  5746  0353                     __end_of_I2C2_DO_SEND_RESTART_READ:	
  5747                           
  5748                           	psect	text25
  5749  0388                     __ptext25:	
  5750 ;; *************** function _I2C2_DO_RCEN *****************
  5751 ;; Defined at:
  5752 ;;		line 402 in file "mcc_generated_files/i2c2_master.c"
  5753 ;; Parameters:    Size  Location     Type
  5754 ;;		None
  5755 ;; Auto vars:     Size  Location     Type
  5756 ;;		None
  5757 ;; Return value:  Size  Location     Type
  5758 ;;                  1    wreg      enum E11284
  5759 ;; Registers used:
  5760 ;;		wreg, status,2, status,0, pclath, cstack
  5761 ;; Tracked objects:
  5762 ;;		On entry : 0/0
  5763 ;;		On exit  : 0/0
  5764 ;;		Unchanged: 0/0
  5765 ;; Data sizes:     COMMON   BANK0   BANK1   BANK2   BANK3   BANK4   BANK5   BANK6   BANK7   BANK8   BANK9  BANK10  BANK1
      +1  BANK12  BANK13  BANK14  BANK15  BANK16  BANK17  BANK18  BANK19  BANK20  BANK21  BANK22  BANK23  BANK24  BANK25
  5766 ;;      Params:         0       0       0       0       0       0       0       0       0       0       0       0       
      +0       0       0       0       0       0       0       0       0       0       0       0       0       0       0
  5767 ;;      Locals:         0       0       0       0       0       0       0       0       0       0       0       0       
      +0       0       0       0       0       0       0       0       0       0       0       0       0       0       0
  5768 ;;      Temps:          0       0       0       0       0       0       0       0       0       0       0       0       
      +0       0       0       0       0       0       0       0       0       0       0       0       0       0       0
  5769 ;;      Totals:         0       0       0       0       0       0       0       0       0       0       0       0       
      +0       0       0       0       0       0       0       0       0       0       0       0       0       0       0
  5770 ;;Total ram usage:        0 bytes
  5771 ;; Hardware stack levels used:    1
  5772 ;; Hardware stack levels required when called:    1
  5773 ;; This function calls:
  5774 ;;		_I2C2_MasterStartRx
  5775 ;; This function is called by:
  5776 ;;		_I2C2_MasterFsm
  5777 ;; This function uses a non-reentrant model
  5778 ;;
  5779                           
  5780                           
  5781                           ;psect for function _I2C2_DO_RCEN
  5782  0388                     _I2C2_DO_RCEN:	
  5783  0388                     l2223:	
  5784                           ;incstack = 0
  5785                           ; Regs used in _I2C2_DO_RCEN: [wreg+status,2+status,0+pclath+cstack]
  5786                           
  5787                           
  5788                           ;mcc_generated_files/i2c2_master.c: 404:     I2C2_Status.addressNackCheck = 0;
  5789  0388  0140               	movlb	0	; select bank0
  5790  0389  103C               	bcf	_I2C2_Status+28,0
  5791  038A                     l2225:	
  5792                           
  5793                           ;mcc_generated_files/i2c2_master.c: 405:     I2C2_MasterStartRx();
  5794  038A  3183  2333  3183   	fcall	_I2C2_MasterStartRx
  5795  038D                     l2227:	
  5796                           
  5797                           ;mcc_generated_files/i2c2_master.c: 406:     return I2C2_RX;
  5798  038D  3004               	movlw	4
  5799  038E                     l403:	
  5800  038E  0008               	return
  5801  038F                     __end_of_I2C2_DO_RCEN:	
  5802                           
  5803                           	psect	text26
  5804  0613                     __ptext26:	
  5805 ;; *************** function _I2C2_DO_RX *****************
  5806 ;; Defined at:
  5807 ;;		line 378 in file "mcc_generated_files/i2c2_master.c"
  5808 ;; Parameters:    Size  Location     Type
  5809 ;;		None
  5810 ;; Auto vars:     Size  Location     Type
  5811 ;;		None
  5812 ;; Return value:  Size  Location     Type
  5813 ;;                  1    wreg      enum E11284
  5814 ;; Registers used:
  5815 ;;		wreg, fsr0l, fsr0h, fsr1l, fsr1h, status,2, status,0, pclath, cstack
  5816 ;; Tracked objects:
  5817 ;;		On entry : 0/0
  5818 ;;		On exit  : 0/0
  5819 ;;		Unchanged: 0/0
  5820 ;; Data sizes:     COMMON   BANK0   BANK1   BANK2   BANK3   BANK4   BANK5   BANK6   BANK7   BANK8   BANK9  BANK10  BANK1
      +1  BANK12  BANK13  BANK14  BANK15  BANK16  BANK17  BANK18  BANK19  BANK20  BANK21  BANK22  BANK23  BANK24  BANK25
  5821 ;;      Params:         0       0       0       0       0       0       0       0       0       0       0       0       
      +0       0       0       0       0       0       0       0       0       0       0       0       0       0       0
  5822 ;;      Locals:         0       0       0       0       0       0       0       0       0       0       0       0       
      +0       0       0       0       0       0       0       0       0       0       0       0       0       0       0
  5823 ;;      Temps:          3       0       0       0       0       0       0       0       0       0       0       0       
      +0       0       0       0       0       0       0       0       0       0       0       0       0       0       0
  5824 ;;      Totals:         3       0       0       0       0       0       0       0       0       0       0       0       
      +0       0       0       0       0       0       0       0       0       0       0       0       0       0       0
  5825 ;;Total ram usage:        3 bytes
  5826 ;; Hardware stack levels used:    1
  5827 ;; Hardware stack levels required when called:    3
  5828 ;; This function calls:
  5829 ;;		Absolute function
  5830 ;;		_I2C2_CallbackReturnReset
  5831 ;;		_I2C2_CallbackReturnStop
  5832 ;;		_I2C2_DO_RX_NACK_RESTART
  5833 ;;		_I2C2_DO_RX_NACK_STOP
  5834 ;;		_I2C2_MasterGetRxData
  5835 ;;		_I2C2_MasterSendAck
  5836 ;;		_rd1RegCompleteHandler
  5837 ;;		_rd2RegCompleteHandler
  5838 ;;		_rdBlkRegCompleteHandler
  5839 ;;		_wr1RegCompleteHandler
  5840 ;;		_wr2RegCompleteHandler
  5841 ;; This function is called by:
  5842 ;;		_I2C2_MasterFsm
  5843 ;; This function uses a non-reentrant model
  5844 ;;
  5845                           
  5846                           
  5847                           ;psect for function _I2C2_DO_RX
  5848  0613                     _I2C2_DO_RX:	
  5849  0613                     l2193:	
  5850                           ;incstack = 0
  5851                           ; Regs used in _I2C2_DO_RX: [wreg-fsr1h+status,2+status,0+pclath+cstack]
  5852                           
  5853                           
  5854                           ;mcc_generated_files/i2c2_master.c: 380:     *I2C2_Status.data_ptr++ = I2C2_MasterGetRxD
      +                          ata();
  5855  0613  3183  2336  3186   	fcall	_I2C2_MasterGetRxData
  5856  0616  00FA               	movwf	??_I2C2_DO_RX
  5857  0617  0140               	movlb	0	; select bank0
  5858  0618  0837               	movf	low ((_I2C2_Status| 0+23)),w
  5859  0619  0086               	movwf	6
  5860  061A  0187               	clrf	7
  5861  061B  087A               	movf	??_I2C2_DO_RX,w
  5862  061C  0081               	movwf	1
  5863  061D                     l2195:	
  5864  061D  3001               	movlw	1
  5865  061E  00FA               	movwf	??_I2C2_DO_RX
  5866  061F  087A               	movf	??_I2C2_DO_RX,w
  5867  0620  07B7               	addwf	low ((_I2C2_Status| 0+23)),f
  5868  0621                     l2197:	
  5869                           
  5870                           ;mcc_generated_files/i2c2_master.c: 381:     if(--I2C2_Status.data_length)
  5871  0621  3001               	movlw	1
  5872  0622  02B8               	subwf	_I2C2_Status+24,f
  5873  0623  3000               	movlw	0
  5874  0624  3BB9               	subwfb	_I2C2_Status+25,f
  5875  0625  0838               	movf	_I2C2_Status+24,w
  5876  0626  0439               	iorwf	_I2C2_Status+25,w
  5877  0627  1903               	btfsc	3,2
  5878  0628  2E2A               	goto	u631
  5879  0629  2E2B               	goto	u630
  5880  062A                     u631:	
  5881  062A  2E30               	goto	l391
  5882  062B                     u630:	
  5883  062B                     l2199:	
  5884                           
  5885                           ;mcc_generated_files/i2c2_master.c: 382:     {;mcc_generated_files/i2c2_master.c: 383:  
      +                                 I2C2_MasterSendAck();
  5886  062B  3183  2340  3186   	fcall	_I2C2_MasterSendAck
  5887  062E                     l2201:	
  5888                           
  5889                           ;mcc_generated_files/i2c2_master.c: 384:         return I2C2_RCEN;
  5890  062E  3005               	movlw	5
  5891  062F  2E58               	goto	l392
  5892  0630                     l391:	
  5893                           ;mcc_generated_files/i2c2_master.c: 386:     else
  5894                           
  5895                           
  5896                           ;mcc_generated_files/i2c2_master.c: 387:     {;mcc_generated_files/i2c2_master.c: 388:  
      +                                 I2C2_Status.bufferFree = 1;
  5897  0630  15BC               	bsf	_I2C2_Status+28,3
  5898                           
  5899                           ;mcc_generated_files/i2c2_master.c: 389:         switch(I2C2_Status.callbackTable[I2C2_D
      +                          ATA_COMPLETE](I2C2_Status.callbackPayload[I2C2_DATA_COMPLETE]))
  5900  0631  2E3A               	goto	l2217
  5901  0632                     l2207:	
  5902                           
  5903                           ;mcc_generated_files/i2c2_master.c: 393:                 return I2C2_DO_RX_NACK_RESTART(
      +                          );
  5904  0632  3183  236C  3186   	fcall	_I2C2_DO_RX_NACK_RESTART
  5905  0635  2E58               	goto	l392
  5906  0636                     l2211:	
  5907                           
  5908                           ;mcc_generated_files/i2c2_master.c: 397:                 return I2C2_DO_RX_NACK_STOP();
  5909  0636  3183  2367  3186   	fcall	_I2C2_DO_RX_NACK_STOP
  5910  0639  2E58               	goto	l392
  5911  063A                     l2217:	
  5912  063A  082C               	movf	low ((_I2C2_Status| 0+12)),w
  5913  063B  00FA               	movwf	??_I2C2_DO_RX
  5914  063C  087A               	movf	??_I2C2_DO_RX,w
  5915  063D  00F9               	movwf	I2C2_CallbackReturnReset@funPtr
  5916  063E  0821               	movf	_I2C2_Status+1,w
  5917  063F  008A               	movwf	10
  5918  0640  0820               	movf	_I2C2_Status,w
  5919  0641  000A               	callw
  5920  0642  3186               	pagesel	$
  5921  0643  00FB               	movwf	??_I2C2_DO_RX+1
  5922  0644  01FC               	clrf	??_I2C2_DO_RX+2
  5923                           
  5924                           ; Switch on 2 bytes has been partitioned into a top level switch of size 1, and 1 sub-sw
      +                          itches
  5925                           ; Switch size 1, requested type "simple"
  5926                           ; Number of cases is 1, Range of values is 0 to 0
  5927                           ; switch strategies available:
  5928                           ; Name         Instructions Cycles
  5929                           ; simple_byte            4     3 (average)
  5930                           ; direct_byte            8     6 (fixed)
  5931                           ; jumptable            260     6 (fixed)
  5932                           ;	Chosen strategy is simple_byte
  5933  0645  087C               	movf	??_I2C2_DO_RX+2,w
  5934  0646  3A00               	xorlw	0	; case 0
  5935  0647  1903               	skipnz
  5936  0648  2E4A               	goto	l2817
  5937  0649  2E36               	goto	l2211
  5938  064A                     l2817:	
  5939                           
  5940                           ; Switch size 1, requested type "simple"
  5941                           ; Number of cases is 4, Range of values is 1 to 4
  5942                           ; switch strategies available:
  5943                           ; Name         Instructions Cycles
  5944                           ; simple_byte           13     7 (average)
  5945                           ; direct_byte           17     9 (fixed)
  5946                           ; jumptable            263     9 (fixed)
  5947                           ;	Chosen strategy is simple_byte
  5948  064A  087B               	movf	??_I2C2_DO_RX+1,w
  5949  064B  3A01               	xorlw	1	; case 1
  5950  064C  1903               	skipnz
  5951  064D  2E36               	goto	l2211
  5952  064E  3A03               	xorlw	3	; case 2
  5953  064F  1903               	skipnz
  5954  0650  2E32               	goto	l2207
  5955  0651  3A01               	xorlw	1	; case 3
  5956  0652  1903               	skipnz
  5957  0653  2E32               	goto	l2207
  5958  0654  3A07               	xorlw	7	; case 4
  5959  0655  1903               	skipnz
  5960  0656  2E36               	goto	l2211
  5961  0657  2E36               	goto	l2211
  5962  0658                     l392:	
  5963  0658  0008               	return
  5964  0659                     __end_of_I2C2_DO_RX:	
  5965                           
  5966                           	psect	text27
  5967  06AD                     __ptext27:	
  5968 ;; *************** function _I2C2_DO_TX *****************
  5969 ;; Defined at:
  5970 ;;		line 354 in file "mcc_generated_files/i2c2_master.c"
  5971 ;; Parameters:    Size  Location     Type
  5972 ;;		None
  5973 ;; Auto vars:     Size  Location     Type
  5974 ;;		None
  5975 ;; Return value:  Size  Location     Type
  5976 ;;                  1    wreg      enum E11284
  5977 ;; Registers used:
  5978 ;;		wreg, fsr0l, fsr0h, fsr1l, fsr1h, status,2, status,0, pclath, cstack
  5979 ;; Tracked objects:
  5980 ;;		On entry : 0/0
  5981 ;;		On exit  : 0/0
  5982 ;;		Unchanged: 0/0
  5983 ;; Data sizes:     COMMON   BANK0   BANK1   BANK2   BANK3   BANK4   BANK5   BANK6   BANK7   BANK8   BANK9  BANK10  BANK1
      +1  BANK12  BANK13  BANK14  BANK15  BANK16  BANK17  BANK18  BANK19  BANK20  BANK21  BANK22  BANK23  BANK24  BANK25
  5984 ;;      Params:         0       0       0       0       0       0       0       0       0       0       0       0       
      +0       0       0       0       0       0       0       0       0       0       0       0       0       0       0
  5985 ;;      Locals:         0       0       0       0       0       0       0       0       0       0       0       0       
      +0       0       0       0       0       0       0       0       0       0       0       0       0       0       0
  5986 ;;      Temps:          3       0       0       0       0       0       0       0       0       0       0       0       
      +0       0       0       0       0       0       0       0       0       0       0       0       0       0       0
  5987 ;;      Totals:         3       0       0       0       0       0       0       0       0       0       0       0       
      +0       0       0       0       0       0       0       0       0       0       0       0       0       0       0
  5988 ;;Total ram usage:        3 bytes
  5989 ;; Hardware stack levels used:    1
  5990 ;; Hardware stack levels required when called:    3
  5991 ;; This function calls:
  5992 ;;		Absolute function
  5993 ;;		_I2C2_CallbackReturnReset
  5994 ;;		_I2C2_CallbackReturnStop
  5995 ;;		_I2C2_DO_SEND_RESTART_READ
  5996 ;;		_I2C2_DO_SEND_RESTART_WRITE
  5997 ;;		_I2C2_DO_SEND_STOP
  5998 ;;		_I2C2_MasterIsNack
  5999 ;;		_I2C2_MasterSendTxData
  6000 ;;		_rd1RegCompleteHandler
  6001 ;;		_rd2RegCompleteHandler
  6002 ;;		_rdBlkRegCompleteHandler
  6003 ;;		_wr1RegCompleteHandler
  6004 ;;		_wr2RegCompleteHandler
  6005 ;; This function is called by:
  6006 ;;		_I2C2_MasterFsm
  6007 ;; This function uses a non-reentrant model
  6008 ;;
  6009                           
  6010                           
  6011                           ;psect for function _I2C2_DO_TX
  6012  06AD                     _I2C2_DO_TX:	
  6013  06AD                     l2159:	
  6014                           ;incstack = 0
  6015                           ; Regs used in _I2C2_DO_TX: [wreg-fsr1h+status,2+status,0+pclath+cstack]
  6016                           
  6017                           
  6018                           ;mcc_generated_files/i2c2_master.c: 356:     if(I2C2_MasterIsNack())
  6019  06AD  3183  2376  3186   	fcall	_I2C2_MasterIsNack
  6020  06B0  3A00               	xorlw	0
  6021  06B1  1903               	skipnz
  6022  06B2  2EB4               	goto	u611
  6023  06B3  2EB5               	goto	u610
  6024  06B4                     u611:	
  6025  06B4  2EE5               	goto	l375
  6026  06B5                     u610:	
  6027  06B5  2EC2               	goto	l2177
  6028  06B6                     l2163:	
  6029                           
  6030                           ;mcc_generated_files/i2c2_master.c: 361:                 return I2C2_DO_SEND_RESTART_REA
      +                          D();
  6031  06B6  3183  234E  3186   	fcall	_I2C2_DO_SEND_RESTART_READ
  6032  06B9  2F01               	goto	l378
  6033  06BA                     l2167:	
  6034                           
  6035                           ;mcc_generated_files/i2c2_master.c: 363:                   return I2C2_DO_SEND_RESTART_W
      +                          RITE();
  6036  06BA  3183  2353  3186   	fcall	_I2C2_DO_SEND_RESTART_WRITE
  6037  06BD  2F01               	goto	l378
  6038  06BE                     l2171:	
  6039                           
  6040                           ;mcc_generated_files/i2c2_master.c: 367:                 return I2C2_DO_SEND_STOP();
  6041  06BE  3183  235D  3186   	fcall	_I2C2_DO_SEND_STOP
  6042  06C1  2F01               	goto	l378
  6043  06C2                     l2177:	
  6044  06C2  0140               	movlb	0	; select bank0
  6045  06C3  082F               	movf	low ((_I2C2_Status| 0+15)),w
  6046  06C4  00FA               	movwf	??_I2C2_DO_TX
  6047  06C5  087A               	movf	??_I2C2_DO_TX,w
  6048  06C6  00F9               	movwf	I2C2_CallbackReturnReset@funPtr
  6049  06C7  3006               	movlw	6
  6050  06C8  3E20               	addlw	(low (_I2C2_Status| 0))& (0+255)
  6051  06C9  0086               	movwf	6
  6052  06CA  0187               	clrf	7
  6053  06CB  3F41               	moviw [1]fsr1
  6054  06CC  008A               	movwf	10
  6055  06CD  3F40               	moviw [0]fsr1
  6056  06CE  000A               	callw
  6057  06CF  3186               	pagesel	$
  6058  06D0  00FB               	movwf	??_I2C2_DO_TX+1
  6059  06D1  01FC               	clrf	??_I2C2_DO_TX+2
  6060                           
  6061                           ; Switch on 2 bytes has been partitioned into a top level switch of size 1, and 1 sub-sw
      +                          itches
  6062                           ; Switch size 1, requested type "simple"
  6063                           ; Number of cases is 1, Range of values is 0 to 0
  6064                           ; switch strategies available:
  6065                           ; Name         Instructions Cycles
  6066                           ; simple_byte            4     3 (average)
  6067                           ; direct_byte            8     6 (fixed)
  6068                           ; jumptable            260     6 (fixed)
  6069                           ;	Chosen strategy is simple_byte
  6070  06D2  087C               	movf	??_I2C2_DO_TX+2,w
  6071  06D3  3A00               	xorlw	0	; case 0
  6072  06D4  1903               	skipnz
  6073  06D5  2ED7               	goto	l2819
  6074  06D6  2EBE               	goto	l2171
  6075  06D7                     l2819:	
  6076                           
  6077                           ; Switch size 1, requested type "simple"
  6078                           ; Number of cases is 4, Range of values is 1 to 4
  6079                           ; switch strategies available:
  6080                           ; Name         Instructions Cycles
  6081                           ; simple_byte           13     7 (average)
  6082                           ; direct_byte           17     9 (fixed)
  6083                           ; jumptable            263     9 (fixed)
  6084                           ;	Chosen strategy is simple_byte
  6085  06D7  087B               	movf	??_I2C2_DO_TX+1,w
  6086  06D8  3A01               	xorlw	1	; case 1
  6087  06D9  1903               	skipnz
  6088  06DA  2EBE               	goto	l2171
  6089  06DB  3A03               	xorlw	3	; case 2
  6090  06DC  1903               	skipnz
  6091  06DD  2EB6               	goto	l2163
  6092  06DE  3A01               	xorlw	1	; case 3
  6093  06DF  1903               	skipnz
  6094  06E0  2EBA               	goto	l2167
  6095  06E1  3A07               	xorlw	7	; case 4
  6096  06E2  1903               	skipnz
  6097  06E3  2EBE               	goto	l2171
  6098  06E4  2EBE               	goto	l2171
  6099  06E5                     l375:	
  6100                           ;mcc_generated_files/i2c2_master.c: 370:     else
  6101                           
  6102                           
  6103                           ;mcc_generated_files/i2c2_master.c: 371:     {;mcc_generated_files/i2c2_master.c: 372:  
      +                                 I2C2_Status.addressNackCheck = 0;
  6104  06E5  0140               	movlb	0	; select bank0
  6105  06E6  103C               	bcf	_I2C2_Status+28,0
  6106  06E7                     l2179:	
  6107                           
  6108                           ;mcc_generated_files/i2c2_master.c: 373:         I2C2_MasterSendTxData(*I2C2_Status.data
      +                          _ptr++);
  6109  06E7  3017               	movlw	23
  6110  06E8  3E20               	addlw	(low (_I2C2_Status| 0))& (0+255)
  6111  06E9  0086               	movwf	6
  6112  06EA  0187               	clrf	7
  6113  06EB  3F40               	moviw [0]fsr1
  6114  06EC  0084               	movwf	4
  6115  06ED  0185               	clrf	5
  6116  06EE  0A81               	incf	1,f
  6117  06EF  0800               	movf	0,w
  6118  06F0  3183  2344  3186   	fcall	_I2C2_MasterSendTxData
  6119  06F3                     l2181:	
  6120                           
  6121                           ;mcc_generated_files/i2c2_master.c: 374:         return (--I2C2_Status.data_length)?I2C2
      +                          _TX:I2C2_TX_EMPTY;
  6122  06F3  3001               	movlw	1
  6123  06F4  0140               	movlb	0	; select bank0
  6124  06F5  02B8               	subwf	_I2C2_Status+24,f
  6125  06F6  3000               	movlw	0
  6126  06F7  3BB9               	subwfb	_I2C2_Status+25,f
  6127  06F8  0838               	movf	_I2C2_Status+24,w
  6128  06F9  0439               	iorwf	_I2C2_Status+25,w
  6129  06FA  1D03               	btfss	3,2
  6130  06FB  2EFD               	goto	u621
  6131  06FC  2EFE               	goto	u620
  6132  06FD                     u621:	
  6133  06FD  2F00               	goto	l2185
  6134  06FE                     u620:	
  6135  06FE                     l2183:	
  6136  06FE  3006               	movlw	6
  6137  06FF  2F01               	goto	l378
  6138  0700                     l2185:	
  6139  0700  3003               	movlw	3
  6140  0701                     l378:	
  6141  0701  0008               	return
  6142  0702                     __end_of_I2C2_DO_TX:	
  6143                           
  6144                           	psect	text28
  6145  038F                     __ptext28:	
  6146 ;; *************** function _I2C2_DO_SEND_ADR_WRITE *****************
  6147 ;; Defined at:
  6148 ;;		line 347 in file "mcc_generated_files/i2c2_master.c"
  6149 ;; Parameters:    Size  Location     Type
  6150 ;;		None
  6151 ;; Auto vars:     Size  Location     Type
  6152 ;;		None
  6153 ;; Return value:  Size  Location     Type
  6154 ;;                  1    wreg      enum E11284
  6155 ;; Registers used:
  6156 ;;		wreg, status,2, status,0, pclath, cstack
  6157 ;; Tracked objects:
  6158 ;;		On entry : 0/0
  6159 ;;		On exit  : 0/0
  6160 ;;		Unchanged: 0/0
  6161 ;; Data sizes:     COMMON   BANK0   BANK1   BANK2   BANK3   BANK4   BANK5   BANK6   BANK7   BANK8   BANK9  BANK10  BANK1
      +1  BANK12  BANK13  BANK14  BANK15  BANK16  BANK17  BANK18  BANK19  BANK20  BANK21  BANK22  BANK23  BANK24  BANK25
  6162 ;;      Params:         0       0       0       0       0       0       0       0       0       0       0       0       
      +0       0       0       0       0       0       0       0       0       0       0       0       0       0       0
  6163 ;;      Locals:         0       0       0       0       0       0       0       0       0       0       0       0       
      +0       0       0       0       0       0       0       0       0       0       0       0       0       0       0
  6164 ;;      Temps:          0       0       0       0       0       0       0       0       0       0       0       0       
      +0       0       0       0       0       0       0       0       0       0       0       0       0       0       0
  6165 ;;      Totals:         0       0       0       0       0       0       0       0       0       0       0       0       
      +0       0       0       0       0       0       0       0       0       0       0       0       0       0       0
  6166 ;;Total ram usage:        0 bytes
  6167 ;; Hardware stack levels used:    1
  6168 ;; Hardware stack levels required when called:    1
  6169 ;; This function calls:
  6170 ;;		_I2C2_MasterSendTxData
  6171 ;; This function is called by:
  6172 ;;		_I2C2_MasterFsm
  6173 ;; This function uses a non-reentrant model
  6174 ;;
  6175                           
  6176                           
  6177                           ;psect for function _I2C2_DO_SEND_ADR_WRITE
  6178  038F                     _I2C2_DO_SEND_ADR_WRITE:	
  6179  038F                     l2151:	
  6180                           ;incstack = 0
  6181                           ; Regs used in _I2C2_DO_SEND_ADR_WRITE: [wreg+status,2+status,0+pclath+cstack]
  6182                           
  6183                           
  6184                           ;mcc_generated_files/i2c2_master.c: 349:     I2C2_Status.addressNackCheck = 1;
  6185  038F  0140               	movlb	0	; select bank0
  6186  0390  143C               	bsf	_I2C2_Status+28,0
  6187  0391                     l2153:	
  6188                           
  6189                           ;mcc_generated_files/i2c2_master.c: 350:     I2C2_MasterSendTxData(I2C2_Status.address <
      +                          < 1);
  6190  0391  3536               	lslf	_I2C2_Status+22,w
  6191  0392  3183  2344  3183   	fcall	_I2C2_MasterSendTxData
  6192  0395                     l2155:	
  6193                           
  6194                           ;mcc_generated_files/i2c2_master.c: 351:     return I2C2_TX;
  6195  0395  3003               	movlw	3
  6196  0396                     l372:	
  6197  0396  0008               	return
  6198  0397                     __end_of_I2C2_DO_SEND_ADR_WRITE:	
  6199                           
  6200                           	psect	text29
  6201  0397                     __ptext29:	
  6202 ;; *************** function _I2C2_DO_SEND_ADR_READ *****************
  6203 ;; Defined at:
  6204 ;;		line 340 in file "mcc_generated_files/i2c2_master.c"
  6205 ;; Parameters:    Size  Location     Type
  6206 ;;		None
  6207 ;; Auto vars:     Size  Location     Type
  6208 ;;		None
  6209 ;; Return value:  Size  Location     Type
  6210 ;;                  1    wreg      enum E11284
  6211 ;; Registers used:
  6212 ;;		wreg, status,2, status,0, pclath, cstack
  6213 ;; Tracked objects:
  6214 ;;		On entry : 0/0
  6215 ;;		On exit  : 0/0
  6216 ;;		Unchanged: 0/0
  6217 ;; Data sizes:     COMMON   BANK0   BANK1   BANK2   BANK3   BANK4   BANK5   BANK6   BANK7   BANK8   BANK9  BANK10  BANK1
      +1  BANK12  BANK13  BANK14  BANK15  BANK16  BANK17  BANK18  BANK19  BANK20  BANK21  BANK22  BANK23  BANK24  BANK25
  6218 ;;      Params:         0       0       0       0       0       0       0       0       0       0       0       0       
      +0       0       0       0       0       0       0       0       0       0       0       0       0       0       0
  6219 ;;      Locals:         0       0       0       0       0       0       0       0       0       0       0       0       
      +0       0       0       0       0       0       0       0       0       0       0       0       0       0       0
  6220 ;;      Temps:          0       0       0       0       0       0       0       0       0       0       0       0       
      +0       0       0       0       0       0       0       0       0       0       0       0       0       0       0
  6221 ;;      Totals:         0       0       0       0       0       0       0       0       0       0       0       0       
      +0       0       0       0       0       0       0       0       0       0       0       0       0       0       0
  6222 ;;Total ram usage:        0 bytes
  6223 ;; Hardware stack levels used:    1
  6224 ;; Hardware stack levels required when called:    1
  6225 ;; This function calls:
  6226 ;;		_I2C2_MasterSendTxData
  6227 ;; This function is called by:
  6228 ;;		_I2C2_MasterFsm
  6229 ;; This function uses a non-reentrant model
  6230 ;;
  6231                           
  6232                           
  6233                           ;psect for function _I2C2_DO_SEND_ADR_READ
  6234  0397                     _I2C2_DO_SEND_ADR_READ:	
  6235  0397                     l2143:	
  6236                           ;incstack = 0
  6237                           ; Regs used in _I2C2_DO_SEND_ADR_READ: [wreg+status,2+status,0+pclath+cstack]
  6238                           
  6239                           
  6240                           ;mcc_generated_files/i2c2_master.c: 342:     I2C2_Status.addressNackCheck = 1;
  6241  0397  0140               	movlb	0	; select bank0
  6242  0398  143C               	bsf	_I2C2_Status+28,0
  6243  0399                     l2145:	
  6244                           
  6245                           ;mcc_generated_files/i2c2_master.c: 343:     I2C2_MasterSendTxData(I2C2_Status.address <
      +                          < 1 | 1);
  6246  0399  1403               	setc
  6247  039A  0D36               	rlf	_I2C2_Status+22,w
  6248  039B  3183  2344  3183   	fcall	_I2C2_MasterSendTxData
  6249  039E                     l2147:	
  6250                           
  6251                           ;mcc_generated_files/i2c2_master.c: 344:     return I2C2_RCEN;
  6252  039E  3005               	movlw	5
  6253  039F                     l369:	
  6254  039F  0008               	return
  6255  03A0                     __end_of_I2C2_DO_SEND_ADR_READ:	
  6256                           
  6257                           	psect	text30
  6258  0349                     __ptext30:	
  6259 ;; *************** function _I2C2_DO_IDLE *****************
  6260 ;; Defined at:
  6261 ;;		line 333 in file "mcc_generated_files/i2c2_master.c"
  6262 ;; Parameters:    Size  Location     Type
  6263 ;;		None
  6264 ;; Auto vars:     Size  Location     Type
  6265 ;;		None
  6266 ;; Return value:  Size  Location     Type
  6267 ;;                  1    wreg      enum E11284
  6268 ;; Registers used:
  6269 ;;		wreg, status,2
  6270 ;; Tracked objects:
  6271 ;;		On entry : 0/0
  6272 ;;		On exit  : 0/0
  6273 ;;		Unchanged: 0/0
  6274 ;; Data sizes:     COMMON   BANK0   BANK1   BANK2   BANK3   BANK4   BANK5   BANK6   BANK7   BANK8   BANK9  BANK10  BANK1
      +1  BANK12  BANK13  BANK14  BANK15  BANK16  BANK17  BANK18  BANK19  BANK20  BANK21  BANK22  BANK23  BANK24  BANK25
  6275 ;;      Params:         0       0       0       0       0       0       0       0       0       0       0       0       
      +0       0       0       0       0       0       0       0       0       0       0       0       0       0       0
  6276 ;;      Locals:         0       0       0       0       0       0       0       0       0       0       0       0       
      +0       0       0       0       0       0       0       0       0       0       0       0       0       0       0
  6277 ;;      Temps:          0       0       0       0       0       0       0       0       0       0       0       0       
      +0       0       0       0       0       0       0       0       0       0       0       0       0       0       0
  6278 ;;      Totals:         0       0       0       0       0       0       0       0       0       0       0       0       
      +0       0       0       0       0       0       0       0       0       0       0       0       0       0       0
  6279 ;;Total ram usage:        0 bytes
  6280 ;; Hardware stack levels used:    1
  6281 ;; This function calls:
  6282 ;;		Nothing
  6283 ;; This function is called by:
  6284 ;;		_I2C2_MasterFsm
  6285 ;; This function uses a non-reentrant model
  6286 ;;
  6287                           
  6288                           
  6289                           ;psect for function _I2C2_DO_IDLE
  6290  0349                     _I2C2_DO_IDLE:	
  6291  0349                     l2135:	
  6292                           ;incstack = 0
  6293                           ; Regs used in _I2C2_DO_IDLE: [wreg+status,2]
  6294                           
  6295                           
  6296                           ;mcc_generated_files/i2c2_master.c: 335:     I2C2_Status.busy = 0;
  6297  0349  0140               	movlb	0	; select bank0
  6298  034A  10BC               	bcf	_I2C2_Status+28,1
  6299  034B                     l2137:	
  6300                           
  6301                           ;mcc_generated_files/i2c2_master.c: 336:     I2C2_Status.error = I2C2_NOERR;
  6302  034B  01BB               	clrf	_I2C2_Status+27
  6303  034C                     l2139:	
  6304                           
  6305                           ;mcc_generated_files/i2c2_master.c: 337:     return I2C2_RESET;
  6306  034C  300E               	movlw	14
  6307  034D                     l366:	
  6308  034D  0008               	return
  6309  034E                     __end_of_I2C2_DO_IDLE:	
  6310                           
  6311                           	psect	text31
  6312  053D                     __ptext31:	
  6313 ;; *************** function _I2C2_DO_TX_EMPTY *****************
  6314 ;; Defined at:
  6315 ;;		line 409 in file "mcc_generated_files/i2c2_master.c"
  6316 ;; Parameters:    Size  Location     Type
  6317 ;;		None
  6318 ;; Auto vars:     Size  Location     Type
  6319 ;;		None
  6320 ;; Return value:  Size  Location     Type
  6321 ;;                  1    wreg      enum E11284
  6322 ;; Registers used:
  6323 ;;		wreg, fsr0l, fsr0h, fsr1l, fsr1h, status,2, status,0, pclath, cstack
  6324 ;; Tracked objects:
  6325 ;;		On entry : 0/0
  6326 ;;		On exit  : 0/0
  6327 ;;		Unchanged: 0/0
  6328 ;; Data sizes:     COMMON   BANK0   BANK1   BANK2   BANK3   BANK4   BANK5   BANK6   BANK7   BANK8   BANK9  BANK10  BANK1
      +1  BANK12  BANK13  BANK14  BANK15  BANK16  BANK17  BANK18  BANK19  BANK20  BANK21  BANK22  BANK23  BANK24  BANK25
  6329 ;;      Params:         0       0       0       0       0       0       0       0       0       0       0       0       
      +0       0       0       0       0       0       0       0       0       0       0       0       0       0       0
  6330 ;;      Locals:         0       0       0       0       0       0       0       0       0       0       0       0       
      +0       0       0       0       0       0       0       0       0       0       0       0       0       0       0
  6331 ;;      Temps:          3       0       0       0       0       0       0       0       0       0       0       0       
      +0       0       0       0       0       0       0       0       0       0       0       0       0       0       0
  6332 ;;      Totals:         3       0       0       0       0       0       0       0       0       0       0       0       
      +0       0       0       0       0       0       0       0       0       0       0       0       0       0       0
  6333 ;;Total ram usage:        3 bytes
  6334 ;; Hardware stack levels used:    1
  6335 ;; Hardware stack levels required when called:    3
  6336 ;; This function calls:
  6337 ;;		Absolute function
  6338 ;;		_I2C2_CallbackReturnReset
  6339 ;;		_I2C2_CallbackReturnStop
  6340 ;;		_I2C2_DO_SEND_RESTART
  6341 ;;		_I2C2_DO_SEND_STOP
  6342 ;;		_I2C2_MasterSetIrq
  6343 ;;		_rd1RegCompleteHandler
  6344 ;;		_rd2RegCompleteHandler
  6345 ;;		_rdBlkRegCompleteHandler
  6346 ;;		_wr1RegCompleteHandler
  6347 ;;		_wr2RegCompleteHandler
  6348 ;; This function is called by:
  6349 ;;		_I2C2_MasterFsm
  6350 ;; This function uses a non-reentrant model
  6351 ;;
  6352                           
  6353                           
  6354                           ;psect for function _I2C2_DO_TX_EMPTY
  6355  053D                     _I2C2_DO_TX_EMPTY:	
  6356  053D                     l2231:	
  6357                           ;incstack = 0
  6358                           ; Regs used in _I2C2_DO_TX_EMPTY: [wreg-fsr1h+status,2+status,0+pclath+cstack]
  6359                           
  6360                           
  6361                           ;mcc_generated_files/i2c2_master.c: 411:     I2C2_Status.bufferFree = 1;
  6362  053D  0140               	movlb	0	; select bank0
  6363  053E  15BC               	bsf	_I2C2_Status+28,3
  6364                           
  6365                           ;mcc_generated_files/i2c2_master.c: 412:     switch(I2C2_Status.callbackTable[I2C2_DATA_
      +                          COMPLETE](I2C2_Status.callbackPayload[I2C2_DATA_COMPLETE]))
  6366  053F  2D4D               	goto	l2249
  6367  0540                     l2233:	
  6368                           
  6369                           ;mcc_generated_files/i2c2_master.c: 416:             return I2C2_DO_SEND_RESTART();
  6370  0540  3183  2358  3185   	fcall	_I2C2_DO_SEND_RESTART
  6371  0543  2D6B               	goto	l409
  6372  0544                     l2237:	
  6373                           
  6374                           ;mcc_generated_files/i2c2_master.c: 418:             I2C2_MasterSetIrq();
  6375  0544  3183  2339  3185   	fcall	_I2C2_MasterSetIrq
  6376  0547                     l2239:	
  6377                           
  6378                           ;mcc_generated_files/i2c2_master.c: 419:             return I2C2_TX;
  6379  0547  3003               	movlw	3
  6380  0548  2D6B               	goto	l409
  6381  0549                     l2243:	
  6382                           
  6383                           ;mcc_generated_files/i2c2_master.c: 422:              return I2C2_DO_SEND_STOP();
  6384  0549  3183  235D  3185   	fcall	_I2C2_DO_SEND_STOP
  6385  054C  2D6B               	goto	l409
  6386  054D                     l2249:	
  6387  054D  082C               	movf	low ((_I2C2_Status| 0+12)),w
  6388  054E  00FA               	movwf	??_I2C2_DO_TX_EMPTY
  6389  054F  087A               	movf	??_I2C2_DO_TX_EMPTY,w
  6390  0550  00F9               	movwf	I2C2_CallbackReturnReset@funPtr
  6391  0551  0821               	movf	_I2C2_Status+1,w
  6392  0552  008A               	movwf	10
  6393  0553  0820               	movf	_I2C2_Status,w
  6394  0554  000A               	callw
  6395  0555  3185               	pagesel	$
  6396  0556  00FB               	movwf	??_I2C2_DO_TX_EMPTY+1
  6397  0557  01FC               	clrf	??_I2C2_DO_TX_EMPTY+2
  6398                           
  6399                           ; Switch on 2 bytes has been partitioned into a top level switch of size 1, and 1 sub-sw
      +                          itches
  6400                           ; Switch size 1, requested type "simple"
  6401                           ; Number of cases is 1, Range of values is 0 to 0
  6402                           ; switch strategies available:
  6403                           ; Name         Instructions Cycles
  6404                           ; simple_byte            4     3 (average)
  6405                           ; direct_byte            8     6 (fixed)
  6406                           ; jumptable            260     6 (fixed)
  6407                           ;	Chosen strategy is simple_byte
  6408  0558  087C               	movf	??_I2C2_DO_TX_EMPTY+2,w
  6409  0559  3A00               	xorlw	0	; case 0
  6410  055A  1903               	skipnz
  6411  055B  2D5D               	goto	l2821
  6412  055C  2D49               	goto	l2243
  6413  055D                     l2821:	
  6414                           
  6415                           ; Switch size 1, requested type "simple"
  6416                           ; Number of cases is 4, Range of values is 1 to 4
  6417                           ; switch strategies available:
  6418                           ; Name         Instructions Cycles
  6419                           ; simple_byte           13     7 (average)
  6420                           ; direct_byte           17     9 (fixed)
  6421                           ; jumptable            263     9 (fixed)
  6422                           ;	Chosen strategy is simple_byte
  6423  055D  087B               	movf	??_I2C2_DO_TX_EMPTY+1,w
  6424  055E  3A01               	xorlw	1	; case 1
  6425  055F  1903               	skipnz
  6426  0560  2D49               	goto	l2243
  6427  0561  3A03               	xorlw	3	; case 2
  6428  0562  1903               	skipnz
  6429  0563  2D40               	goto	l2233
  6430  0564  3A01               	xorlw	1	; case 3
  6431  0565  1903               	skipnz
  6432  0566  2D40               	goto	l2233
  6433  0567  3A07               	xorlw	7	; case 4
  6434  0568  1903               	skipnz
  6435  0569  2D44               	goto	l2237
  6436  056A  2D49               	goto	l2243
  6437  056B                     l409:	
  6438  056B  0008               	return
  6439  056C                     __end_of_I2C2_DO_TX_EMPTY:	
  6440                           
  6441                           	psect	text32
  6442  0339                     __ptext32:	
  6443 ;; *************** function _I2C2_MasterSetIrq *****************
  6444 ;; Defined at:
  6445 ;;		line 645 in file "mcc_generated_files/i2c2_master.c"
  6446 ;; Parameters:    Size  Location     Type
  6447 ;;		None
  6448 ;; Auto vars:     Size  Location     Type
  6449 ;;		None
  6450 ;; Return value:  Size  Location     Type
  6451 ;;                  1    wreg      void 
  6452 ;; Registers used:
  6453 ;;		None
  6454 ;; Tracked objects:
  6455 ;;		On entry : 0/0
  6456 ;;		On exit  : 0/0
  6457 ;;		Unchanged: 0/0
  6458 ;; Data sizes:     COMMON   BANK0   BANK1   BANK2   BANK3   BANK4   BANK5   BANK6   BANK7   BANK8   BANK9  BANK10  BANK1
      +1  BANK12  BANK13  BANK14  BANK15  BANK16  BANK17  BANK18  BANK19  BANK20  BANK21  BANK22  BANK23  BANK24  BANK25
  6459 ;;      Params:         0       0       0       0       0       0       0       0       0       0       0       0       
      +0       0       0       0       0       0       0       0       0       0       0       0       0       0       0
  6460 ;;      Locals:         0       0       0       0       0       0       0       0       0       0       0       0       
      +0       0       0       0       0       0       0       0       0       0       0       0       0       0       0
  6461 ;;      Temps:          0       0       0       0       0       0       0       0       0       0       0       0       
      +0       0       0       0       0       0       0       0       0       0       0       0       0       0       0
  6462 ;;      Totals:         0       0       0       0       0       0       0       0       0       0       0       0       
      +0       0       0       0       0       0       0       0       0       0       0       0       0       0       0
  6463 ;;Total ram usage:        0 bytes
  6464 ;; Hardware stack levels used:    1
  6465 ;; This function calls:
  6466 ;;		Nothing
  6467 ;; This function is called by:
  6468 ;;		_I2C2_DO_TX_EMPTY
  6469 ;; This function uses a non-reentrant model
  6470 ;;
  6471                           
  6472                           
  6473                           ;psect for function _I2C2_MasterSetIrq
  6474  0339                     _I2C2_MasterSetIrq:	
  6475  0339                     l2123:	
  6476                           ;incstack = 0
  6477                           ; Regs used in _I2C2_MasterSetIrq: []
  6478                           
  6479                           
  6480                           ;mcc_generated_files/i2c2_master.c: 647:     PIR3bits.SSP2IF = 1;
  6481  0339  014E               	movlb	14	; select bank14
  6482  033A  150F               	bsf	15,2	;volatile
  6483  033B                     l529:	
  6484  033B  0008               	return
  6485  033C                     __end_of_I2C2_MasterSetIrq:	
  6486                           
  6487                           	psect	text33
  6488  0376                     __ptext33:	
  6489 ;; *************** function _I2C2_MasterIsNack *****************
  6490 ;; Defined at:
  6491 ;;		line 598 in file "mcc_generated_files/i2c2_master.c"
  6492 ;; Parameters:    Size  Location     Type
  6493 ;;		None
  6494 ;; Auto vars:     Size  Location     Type
  6495 ;;		None
  6496 ;; Return value:  Size  Location     Type
  6497 ;;                  1    wreg      _Bool 
  6498 ;; Registers used:
  6499 ;;		wreg, status,2, status,0
  6500 ;; Tracked objects:
  6501 ;;		On entry : 0/0
  6502 ;;		On exit  : 0/0
  6503 ;;		Unchanged: 0/0
  6504 ;; Data sizes:     COMMON   BANK0   BANK1   BANK2   BANK3   BANK4   BANK5   BANK6   BANK7   BANK8   BANK9  BANK10  BANK1
      +1  BANK12  BANK13  BANK14  BANK15  BANK16  BANK17  BANK18  BANK19  BANK20  BANK21  BANK22  BANK23  BANK24  BANK25
  6505 ;;      Params:         0       0       0       0       0       0       0       0       0       0       0       0       
      +0       0       0       0       0       0       0       0       0       0       0       0       0       0       0
  6506 ;;      Locals:         0       0       0       0       0       0       0       0       0       0       0       0       
      +0       0       0       0       0       0       0       0       0       0       0       0       0       0       0
  6507 ;;      Temps:          0       0       0       0       0       0       0       0       0       0       0       0       
      +0       0       0       0       0       0       0       0       0       0       0       0       0       0       0
  6508 ;;      Totals:         0       0       0       0       0       0       0       0       0       0       0       0       
      +0       0       0       0       0       0       0       0       0       0       0       0       0       0       0
  6509 ;;Total ram usage:        0 bytes
  6510 ;; Hardware stack levels used:    1
  6511 ;; This function calls:
  6512 ;;		Nothing
  6513 ;; This function is called by:
  6514 ;;		_I2C2_MasterFsm
  6515 ;;		_I2C2_DO_TX
  6516 ;; This function uses a non-reentrant model
  6517 ;;
  6518                           
  6519                           
  6520                           ;psect for function _I2C2_MasterIsNack
  6521  0376                     _I2C2_MasterIsNack:	
  6522  0376                     l2073:	
  6523                           ;incstack = 0
  6524                           ; Regs used in _I2C2_MasterIsNack: [wreg+status,2+status,0]
  6525                           
  6526                           
  6527                           ;mcc_generated_files/i2c2_master.c: 600:     return SSP2CON2bits.ACKSTAT;
  6528  0376  0143               	movlb	3	; select bank3
  6529  0377  0E1B               	swapf	27,w	;volatile
  6530  0378  0C89               	rrf	9,f
  6531  0379  0C89               	rrf	9,f
  6532  037A  3901               	andlw	1
  6533  037B                     l502:	
  6534  037B  0008               	return
  6535  037C                     __end_of_I2C2_MasterIsNack:	
  6536                           
  6537                           	psect	text34
  6538  0344                     __ptext34:	
  6539 ;; *************** function _I2C2_MasterSendTxData *****************
  6540 ;; Defined at:
  6541 ;;		line 568 in file "mcc_generated_files/i2c2_master.c"
  6542 ;; Parameters:    Size  Location     Type
  6543 ;;  data            1    wreg     unsigned char 
  6544 ;; Auto vars:     Size  Location     Type
  6545 ;;  data            1    0[COMMON] unsigned char 
  6546 ;; Return value:  Size  Location     Type
  6547 ;;                  1    wreg      void 
  6548 ;; Registers used:
  6549 ;;		wreg
  6550 ;; Tracked objects:
  6551 ;;		On entry : 0/0
  6552 ;;		On exit  : 0/0
  6553 ;;		Unchanged: 0/0
  6554 ;; Data sizes:     COMMON   BANK0   BANK1   BANK2   BANK3   BANK4   BANK5   BANK6   BANK7   BANK8   BANK9  BANK10  BANK1
      +1  BANK12  BANK13  BANK14  BANK15  BANK16  BANK17  BANK18  BANK19  BANK20  BANK21  BANK22  BANK23  BANK24  BANK25
  6555 ;;      Params:         0       0       0       0       0       0       0       0       0       0       0       0       
      +0       0       0       0       0       0       0       0       0       0       0       0       0       0       0
  6556 ;;      Locals:         1       0       0       0       0       0       0       0       0       0       0       0       
      +0       0       0       0       0       0       0       0       0       0       0       0       0       0       0
  6557 ;;      Temps:          0       0       0       0       0       0       0       0       0       0       0       0       
      +0       0       0       0       0       0       0       0       0       0       0       0       0       0       0
  6558 ;;      Totals:         1       0       0       0       0       0       0       0       0       0       0       0       
      +0       0       0       0       0       0       0       0       0       0       0       0       0       0       0
  6559 ;;Total ram usage:        1 bytes
  6560 ;; Hardware stack levels used:    1
  6561 ;; This function calls:
  6562 ;;		Nothing
  6563 ;; This function is called by:
  6564 ;;		_I2C2_DO_SEND_ADR_READ
  6565 ;;		_I2C2_DO_SEND_ADR_WRITE
  6566 ;;		_I2C2_DO_TX
  6567 ;; This function uses a non-reentrant model
  6568 ;;
  6569                           
  6570                           
  6571                           ;psect for function _I2C2_MasterSendTxData
  6572  0344                     _I2C2_MasterSendTxData:	
  6573                           
  6574                           ;incstack = 0
  6575                           ; Regs used in _I2C2_MasterSendTxData: [wreg]
  6576                           ;I2C2_MasterSendTxData@data stored from wreg
  6577  0344  00F0               	movwf	I2C2_MasterSendTxData@data
  6578  0345                     l2077:	
  6579                           
  6580                           ;mcc_generated_files/i2c2_master.c: 568: static __attribute__((inline)) void I2C2_Master
      +                          SendTxData(uint8_t data);mcc_generated_files/i2c2_master.c: 569: {;mcc_generated_files/i
      +                          2c2_master.c: 570:     SSP2BUF = data;
  6581  0345  0870               	movf	I2C2_MasterSendTxData@data,w
  6582  0346  0143               	movlb	3	; select bank3
  6583  0347  0096               	movwf	22	;volatile
  6584  0348                     l484:	
  6585  0348  0008               	return
  6586  0349                     __end_of_I2C2_MasterSendTxData:	
  6587                           
  6588                           	psect	text35
  6589  0340                     __ptext35:	
  6590 ;; *************** function _I2C2_MasterSendAck *****************
  6591 ;; Defined at:
  6592 ;;		line 603 in file "mcc_generated_files/i2c2_master.c"
  6593 ;; Parameters:    Size  Location     Type
  6594 ;;		None
  6595 ;; Auto vars:     Size  Location     Type
  6596 ;;		None
  6597 ;; Return value:  Size  Location     Type
  6598 ;;                  1    wreg      void 
  6599 ;; Registers used:
  6600 ;;		None
  6601 ;; Tracked objects:
  6602 ;;		On entry : 0/0
  6603 ;;		On exit  : 0/0
  6604 ;;		Unchanged: 0/0
  6605 ;; Data sizes:     COMMON   BANK0   BANK1   BANK2   BANK3   BANK4   BANK5   BANK6   BANK7   BANK8   BANK9  BANK10  BANK1
      +1  BANK12  BANK13  BANK14  BANK15  BANK16  BANK17  BANK18  BANK19  BANK20  BANK21  BANK22  BANK23  BANK24  BANK25
  6606 ;;      Params:         0       0       0       0       0       0       0       0       0       0       0       0       
      +0       0       0       0       0       0       0       0       0       0       0       0       0       0       0
  6607 ;;      Locals:         0       0       0       0       0       0       0       0       0       0       0       0       
      +0       0       0       0       0       0       0       0       0       0       0       0       0       0       0
  6608 ;;      Temps:          0       0       0       0       0       0       0       0       0       0       0       0       
      +0       0       0       0       0       0       0       0       0       0       0       0       0       0       0
  6609 ;;      Totals:         0       0       0       0       0       0       0       0       0       0       0       0       
      +0       0       0       0       0       0       0       0       0       0       0       0       0       0       0
  6610 ;;Total ram usage:        0 bytes
  6611 ;; Hardware stack levels used:    1
  6612 ;; This function calls:
  6613 ;;		Nothing
  6614 ;; This function is called by:
  6615 ;;		_I2C2_DO_RX
  6616 ;;		_I2C2_DO_RX_ACK
  6617 ;; This function uses a non-reentrant model
  6618 ;;
  6619                           
  6620                           
  6621                           ;psect for function _I2C2_MasterSendAck
  6622  0340                     _I2C2_MasterSendAck:	
  6623  0340                     l2101:	
  6624                           ;incstack = 0
  6625                           ; Regs used in _I2C2_MasterSendAck: []
  6626                           
  6627                           
  6628                           ;mcc_generated_files/i2c2_master.c: 605:     SSP2CON2bits.ACKDT = 0;
  6629  0340  0143               	movlb	3	; select bank3
  6630  0341  129B               	bcf	27,5	;volatile
  6631                           
  6632                           ;mcc_generated_files/i2c2_master.c: 606:     SSP2CON2bits.ACKEN = 1;
  6633  0342  161B               	bsf	27,4	;volatile
  6634  0343                     l505:	
  6635  0343  0008               	return
  6636  0344                     __end_of_I2C2_MasterSendAck:	
  6637                           
  6638                           	psect	text36
  6639  0336                     __ptext36:	
  6640 ;; *************** function _I2C2_MasterGetRxData *****************
  6641 ;; Defined at:
  6642 ;;		line 563 in file "mcc_generated_files/i2c2_master.c"
  6643 ;; Parameters:    Size  Location     Type
  6644 ;;		None
  6645 ;; Auto vars:     Size  Location     Type
  6646 ;;		None
  6647 ;; Return value:  Size  Location     Type
  6648 ;;                  1    wreg      unsigned char 
  6649 ;; Registers used:
  6650 ;;		wreg
  6651 ;; Tracked objects:
  6652 ;;		On entry : 0/0
  6653 ;;		On exit  : 0/0
  6654 ;;		Unchanged: 0/0
  6655 ;; Data sizes:     COMMON   BANK0   BANK1   BANK2   BANK3   BANK4   BANK5   BANK6   BANK7   BANK8   BANK9  BANK10  BANK1
      +1  BANK12  BANK13  BANK14  BANK15  BANK16  BANK17  BANK18  BANK19  BANK20  BANK21  BANK22  BANK23  BANK24  BANK25
  6656 ;;      Params:         0       0       0       0       0       0       0       0       0       0       0       0       
      +0       0       0       0       0       0       0       0       0       0       0       0       0       0       0
  6657 ;;      Locals:         0       0       0       0       0       0       0       0       0       0       0       0       
      +0       0       0       0       0       0       0       0       0       0       0       0       0       0       0
  6658 ;;      Temps:          0       0       0       0       0       0       0       0       0       0       0       0       
      +0       0       0       0       0       0       0       0       0       0       0       0       0       0       0
  6659 ;;      Totals:         0       0       0       0       0       0       0       0       0       0       0       0       
      +0       0       0       0       0       0       0       0       0       0       0       0       0       0       0
  6660 ;;Total ram usage:        0 bytes
  6661 ;; Hardware stack levels used:    1
  6662 ;; This function calls:
  6663 ;;		Nothing
  6664 ;; This function is called by:
  6665 ;;		_I2C2_DO_RX
  6666 ;; This function uses a non-reentrant model
  6667 ;;
  6668                           
  6669                           
  6670                           ;psect for function _I2C2_MasterGetRxData
  6671  0336                     _I2C2_MasterGetRxData:	
  6672  0336                     l2097:	
  6673                           ;incstack = 0
  6674                           ; Regs used in _I2C2_MasterGetRxData: [wreg]
  6675                           
  6676                           
  6677                           ;mcc_generated_files/i2c2_master.c: 565:     return SSP2BUF;
  6678  0336  0143               	movlb	3	; select bank3
  6679  0337  0816               	movf	22,w	;volatile
  6680  0338                     l481:	
  6681  0338  0008               	return
  6682  0339                     __end_of_I2C2_MasterGetRxData:	
  6683                           
  6684                           	psect	text37
  6685  033C                     __ptext37:	
  6686 ;; *************** function _I2C2_MasterSendNack *****************
  6687 ;; Defined at:
  6688 ;;		line 609 in file "mcc_generated_files/i2c2_master.c"
  6689 ;; Parameters:    Size  Location     Type
  6690 ;;		None
  6691 ;; Auto vars:     Size  Location     Type
  6692 ;;		None
  6693 ;; Return value:  Size  Location     Type
  6694 ;;                  1    wreg      void 
  6695 ;; Registers used:
  6696 ;;		None
  6697 ;; Tracked objects:
  6698 ;;		On entry : 0/0
  6699 ;;		On exit  : 0/0
  6700 ;;		Unchanged: 0/0
  6701 ;; Data sizes:     COMMON   BANK0   BANK1   BANK2   BANK3   BANK4   BANK5   BANK6   BANK7   BANK8   BANK9  BANK10  BANK1
      +1  BANK12  BANK13  BANK14  BANK15  BANK16  BANK17  BANK18  BANK19  BANK20  BANK21  BANK22  BANK23  BANK24  BANK25
  6702 ;;      Params:         0       0       0       0       0       0       0       0       0       0       0       0       
      +0       0       0       0       0       0       0       0       0       0       0       0       0       0       0
  6703 ;;      Locals:         0       0       0       0       0       0       0       0       0       0       0       0       
      +0       0       0       0       0       0       0       0       0       0       0       0       0       0       0
  6704 ;;      Temps:          0       0       0       0       0       0       0       0       0       0       0       0       
      +0       0       0       0       0       0       0       0       0       0       0       0       0       0       0
  6705 ;;      Totals:         0       0       0       0       0       0       0       0       0       0       0       0       
      +0       0       0       0       0       0       0       0       0       0       0       0       0       0       0
  6706 ;;Total ram usage:        0 bytes
  6707 ;; Hardware stack levels used:    1
  6708 ;; This function calls:
  6709 ;;		Nothing
  6710 ;; This function is called by:
  6711 ;;		_I2C2_DO_RX_NACK_STOP
  6712 ;;		_I2C2_DO_RX_NACK_RESTART
  6713 ;; This function uses a non-reentrant model
  6714 ;;
  6715                           
  6716                           
  6717                           ;psect for function _I2C2_MasterSendNack
  6718  033C                     _I2C2_MasterSendNack:	
  6719  033C                     l2033:	
  6720                           ;incstack = 0
  6721                           ; Regs used in _I2C2_MasterSendNack: []
  6722                           
  6723                           
  6724                           ;mcc_generated_files/i2c2_master.c: 611:     SSP2CON2bits.ACKDT = 1;
  6725  033C  0143               	movlb	3	; select bank3
  6726  033D  169B               	bsf	27,5	;volatile
  6727                           
  6728                           ;mcc_generated_files/i2c2_master.c: 612:     SSP2CON2bits.ACKEN = 1;
  6729  033E  161B               	bsf	27,4	;volatile
  6730  033F                     l508:	
  6731  033F  0008               	return
  6732  0340                     __end_of_I2C2_MasterSendNack:	
  6733                           
  6734                           	psect	text38
  6735  0333                     __ptext38:	
  6736 ;; *************** function _I2C2_MasterStartRx *****************
  6737 ;; Defined at:
  6738 ;;		line 583 in file "mcc_generated_files/i2c2_master.c"
  6739 ;; Parameters:    Size  Location     Type
  6740 ;;		None
  6741 ;; Auto vars:     Size  Location     Type
  6742 ;;		None
  6743 ;; Return value:  Size  Location     Type
  6744 ;;                  1    wreg      void 
  6745 ;; Registers used:
  6746 ;;		None
  6747 ;; Tracked objects:
  6748 ;;		On entry : 0/0
  6749 ;;		On exit  : 0/0
  6750 ;;		Unchanged: 0/0
  6751 ;; Data sizes:     COMMON   BANK0   BANK1   BANK2   BANK3   BANK4   BANK5   BANK6   BANK7   BANK8   BANK9  BANK10  BANK1
      +1  BANK12  BANK13  BANK14  BANK15  BANK16  BANK17  BANK18  BANK19  BANK20  BANK21  BANK22  BANK23  BANK24  BANK25
  6752 ;;      Params:         0       0       0       0       0       0       0       0       0       0       0       0       
      +0       0       0       0       0       0       0       0       0       0       0       0       0       0       0
  6753 ;;      Locals:         0       0       0       0       0       0       0       0       0       0       0       0       
      +0       0       0       0       0       0       0       0       0       0       0       0       0       0       0
  6754 ;;      Temps:          0       0       0       0       0       0       0       0       0       0       0       0       
      +0       0       0       0       0       0       0       0       0       0       0       0       0       0       0
  6755 ;;      Totals:         0       0       0       0       0       0       0       0       0       0       0       0       
      +0       0       0       0       0       0       0       0       0       0       0       0       0       0       0
  6756 ;;Total ram usage:        0 bytes
  6757 ;; Hardware stack levels used:    1
  6758 ;; This function calls:
  6759 ;;		Nothing
  6760 ;; This function is called by:
  6761 ;;		_I2C2_DO_RCEN
  6762 ;; This function uses a non-reentrant model
  6763 ;;
  6764                           
  6765                           
  6766                           ;psect for function _I2C2_MasterStartRx
  6767  0333                     _I2C2_MasterStartRx:	
  6768  0333                     l2115:	
  6769                           ;incstack = 0
  6770                           ; Regs used in _I2C2_MasterStartRx: []
  6771                           
  6772                           
  6773                           ;mcc_generated_files/i2c2_master.c: 585:     SSP2CON2bits.RCEN = 1;
  6774  0333  0143               	movlb	3	; select bank3
  6775  0334  159B               	bsf	27,3	;volatile
  6776  0335                     l493:	
  6777  0335  0008               	return
  6778  0336                     __end_of_I2C2_MasterStartRx:	
  6779                           
  6780                           	psect	text39
  6781  031F                     __ptext39:	
  6782 ;; *************** function _I2C2_CallbackReturnReset *****************
  6783 ;; Defined at:
  6784 ;;		line 525 in file "mcc_generated_files/i2c2_master.c"
  6785 ;; Parameters:    Size  Location     Type
  6786 ;;  funPtr          1    9[COMMON] PTR void 
  6787 ;;		 -> I2C2_ReadDataBlock@bufferBlock(3), I2C2_Write2ByteRegister@data(2), I2C2_Write1ByteRegister@data(1), I2C2_Read2B
      +yteRegister@returnValue(2), 
  6788 ;;		 -> NULL(0), I2C2_Read1ByteRegister@returnValue(1), 
  6789 ;; Auto vars:     Size  Location     Type
  6790 ;;		None
  6791 ;; Return value:  Size  Location     Type
  6792 ;;                  1    wreg      enum E358
  6793 ;; Registers used:
  6794 ;;		wreg
  6795 ;; Tracked objects:
  6796 ;;		On entry : 0/0
  6797 ;;		On exit  : 0/0
  6798 ;;		Unchanged: 0/0
  6799 ;; Data sizes:     COMMON   BANK0   BANK1   BANK2   BANK3   BANK4   BANK5   BANK6   BANK7   BANK8   BANK9  BANK10  BANK1
      +1  BANK12  BANK13  BANK14  BANK15  BANK16  BANK17  BANK18  BANK19  BANK20  BANK21  BANK22  BANK23  BANK24  BANK25
  6800 ;;      Params:         1       0       0       0       0       0       0       0       0       0       0       0       
      +0       0       0       0       0       0       0       0       0       0       0       0       0       0       0
  6801 ;;      Locals:         0       0       0       0       0       0       0       0       0       0       0       0       
      +0       0       0       0       0       0       0       0       0       0       0       0       0       0       0
  6802 ;;      Temps:          0       0       0       0       0       0       0       0       0       0       0       0       
      +0       0       0       0       0       0       0       0       0       0       0       0       0       0       0
  6803 ;;      Totals:         1       0       0       0       0       0       0       0       0       0       0       0       
      +0       0       0       0       0       0       0       0       0       0       0       0       0       0       0
  6804 ;;Total ram usage:        1 bytes
  6805 ;; Hardware stack levels used:    1
  6806 ;; This function calls:
  6807 ;;		Nothing
  6808 ;; This function is called by:
  6809 ;;		_I2C2_Open
  6810 ;;		_I2C2_DO_TX
  6811 ;;		_I2C2_DO_RX
  6812 ;;		_I2C2_DO_TX_EMPTY
  6813 ;;		_I2C2_DO_ADDRESS_NACK
  6814 ;;		_I2C2_DO_RX_EMPTY
  6815 ;; This function uses a non-reentrant model
  6816 ;;
  6817                           
  6818                           
  6819                           ;psect for function _I2C2_CallbackReturnReset
  6820  031F                     _I2C2_CallbackReturnReset:	
  6821  031F                     l2129:	
  6822                           ;incstack = 0
  6823                           ; Regs used in _I2C2_CallbackReturnReset: [wreg]
  6824                           
  6825                           
  6826                           ;mcc_generated_files/i2c2_master.c: 525: i2c2_operations_t I2C2_CallbackReturnReset(void
      +                           *funPtr);mcc_generated_files/i2c2_master.c: 526: {;mcc_generated_files/i2c2_master.c: 5
      +                          27:     return I2C2_RESET_LINK;
  6827  031F  3005               	movlw	5
  6828  0320                     l465:	
  6829  0320  0008               	return
  6830  0321                     __end_of_I2C2_CallbackReturnReset:	
  6831                           
  6832                           	psect	text40
  6833  031D                     __ptext40:	
  6834 ;; *************** function _I2C2_CallbackReturnStop *****************
  6835 ;; Defined at:
  6836 ;;		line 520 in file "mcc_generated_files/i2c2_master.c"
  6837 ;; Parameters:    Size  Location     Type
  6838 ;;  funPtr          1    9[COMMON] PTR void 
  6839 ;;		 -> I2C2_ReadDataBlock@bufferBlock(3), I2C2_Write2ByteRegister@data(2), I2C2_Write1ByteRegister@data(1), I2C2_Read2B
      +yteRegister@returnValue(2), 
  6840 ;;		 -> NULL(0), I2C2_Read1ByteRegister@returnValue(1), 
  6841 ;; Auto vars:     Size  Location     Type
  6842 ;;		None
  6843 ;; Return value:  Size  Location     Type
  6844 ;;                  1    wreg      enum E358
  6845 ;; Registers used:
  6846 ;;		wreg
  6847 ;; Tracked objects:
  6848 ;;		On entry : 0/0
  6849 ;;		On exit  : 0/0
  6850 ;;		Unchanged: 0/0
  6851 ;; Data sizes:     COMMON   BANK0   BANK1   BANK2   BANK3   BANK4   BANK5   BANK6   BANK7   BANK8   BANK9  BANK10  BANK1
      +1  BANK12  BANK13  BANK14  BANK15  BANK16  BANK17  BANK18  BANK19  BANK20  BANK21  BANK22  BANK23  BANK24  BANK25
  6852 ;;      Params:         1       0       0       0       0       0       0       0       0       0       0       0       
      +0       0       0       0       0       0       0       0       0       0       0       0       0       0       0
  6853 ;;      Locals:         0       0       0       0       0       0       0       0       0       0       0       0       
      +0       0       0       0       0       0       0       0       0       0       0       0       0       0       0
  6854 ;;      Temps:          0       0       0       0       0       0       0       0       0       0       0       0       
      +0       0       0       0       0       0       0       0       0       0       0       0       0       0       0
  6855 ;;      Totals:         1       0       0       0       0       0       0       0       0       0       0       0       
      +0       0       0       0       0       0       0       0       0       0       0       0       0       0       0
  6856 ;;Total ram usage:        1 bytes
  6857 ;; Hardware stack levels used:    1
  6858 ;; This function calls:
  6859 ;;		Nothing
  6860 ;; This function is called by:
  6861 ;;		_I2C2_Open
  6862 ;;		_I2C2_SetCallback
  6863 ;;		_I2C2_DO_TX
  6864 ;;		_I2C2_DO_RX
  6865 ;;		_I2C2_DO_TX_EMPTY
  6866 ;;		_I2C2_DO_ADDRESS_NACK
  6867 ;;		_I2C2_DO_RX_EMPTY
  6868 ;; This function uses a non-reentrant model
  6869 ;;
  6870                           
  6871                           
  6872                           ;psect for function _I2C2_CallbackReturnStop
  6873  031D                     _I2C2_CallbackReturnStop:	
  6874  031D                     l2125:	
  6875                           ;incstack = 0
  6876                           ; Regs used in _I2C2_CallbackReturnStop: [wreg]
  6877                           
  6878                           
  6879                           ;mcc_generated_files/i2c2_master.c: 520: i2c2_operations_t I2C2_CallbackReturnStop(void 
      +                          *funPtr);mcc_generated_files/i2c2_master.c: 521: {;mcc_generated_files/i2c2_master.c: 52
      +                          2:     return I2C2_STOP;
  6880  031D  3001               	movlw	1
  6881  031E                     l462:	
  6882  031E  0008               	return
  6883  031F                     __end_of_I2C2_CallbackReturnStop:	
  6884                           
  6885                           	psect	text41
  6886  0444                     __ptext41:	
  6887 ;; *************** function _rdBlkRegCompleteHandler *****************
  6888 ;; Defined at:
  6889 ;;		line 170 in file "mcc_generated_files/examples/i2c2_master_example.c"
  6890 ;; Parameters:    Size  Location     Type
  6891 ;;  ptr             1    9[COMMON] PTR void 
  6892 ;;		 -> I2C2_ReadDataBlock@bufferBlock(3), I2C2_Write2ByteRegister@data(2), I2C2_Write1ByteRegister@data(1), I2C2_Read2B
      +yteRegister@returnValue(2), 
  6893 ;;		 -> NULL(0), I2C2_Read1ByteRegister@returnValue(1), 
  6894 ;; Auto vars:     Size  Location     Type
  6895 ;;		None
  6896 ;; Return value:  Size  Location     Type
  6897 ;;                  1    wreg      enum E358
  6898 ;; Registers used:
  6899 ;;		wreg, fsr1l, fsr1h, status,2, status,0, pclath, cstack
  6900 ;; Tracked objects:
  6901 ;;		On entry : 0/0
  6902 ;;		On exit  : 0/0
  6903 ;;		Unchanged: 0/0
  6904 ;; Data sizes:     COMMON   BANK0   BANK1   BANK2   BANK3   BANK4   BANK5   BANK6   BANK7   BANK8   BANK9  BANK10  BANK1
      +1  BANK12  BANK13  BANK14  BANK15  BANK16  BANK17  BANK18  BANK19  BANK20  BANK21  BANK22  BANK23  BANK24  BANK25
  6905 ;;      Params:         1       0       0       0       0       0       0       0       0       0       0       0       
      +0       0       0       0       0       0       0       0       0       0       0       0       0       0       0
  6906 ;;      Locals:         0       0       0       0       0       0       0       0       0       0       0       0       
      +0       0       0       0       0       0       0       0       0       0       0       0       0       0       0
  6907 ;;      Temps:          0       0       0       0       0       0       0       0       0       0       0       0       
      +0       0       0       0       0       0       0       0       0       0       0       0       0       0       0
  6908 ;;      Totals:         1       0       0       0       0       0       0       0       0       0       0       0       
      +0       0       0       0       0       0       0       0       0       0       0       0       0       0       0
  6909 ;;Total ram usage:        1 bytes
  6910 ;; Hardware stack levels used:    1
  6911 ;; Hardware stack levels required when called:    2
  6912 ;; This function calls:
  6913 ;;		_I2C2_SetBuffer
  6914 ;;		_I2C2_SetDataCompleteCallback
  6915 ;; This function is called by:
  6916 ;;		_I2C2_ReadDataBlock
  6917 ;;		_I2C2_DO_TX
  6918 ;;		_I2C2_DO_RX
  6919 ;;		_I2C2_DO_TX_EMPTY
  6920 ;;		_I2C2_DO_ADDRESS_NACK
  6921 ;;		_I2C2_DO_RX_EMPTY
  6922 ;; This function uses a non-reentrant model
  6923 ;;
  6924                           
  6925                           
  6926                           ;psect for function _rdBlkRegCompleteHandler
  6927  0444                     _rdBlkRegCompleteHandler:	
  6928  0444                     l2067:	
  6929                           ;incstack = 0
  6930                           ; Regs used in _rdBlkRegCompleteHandler: [wreg+fsr1l+fsr1h+status,2+status,0+pclath+csta
      +                          ck]
  6931                           
  6932                           
  6933                           ;mcc_generated_files/examples/i2c2_master_example.c: 170: static i2c2_operations_t rdBlk
      +                          RegCompleteHandler(void *ptr);mcc_generated_files/examples/i2c2_master_example.c: 171: {
      +                          ;mcc_generated_files/examples/i2c2_master_example.c: 172:     I2C2_SetBuffer(((i2c2_buff
      +                          er_t *)ptr)->data,((i2c2_buffer_t*)ptr)->len);
  6934  0444  0879               	movf	rdBlkRegCompleteHandler@ptr,w
  6935  0445  0086               	movwf	6
  6936  0446  0187               	clrf	7
  6937  0447  3F40               	moviw [0]fsr1
  6938  0448  00F0               	movwf	I2C2_SetBuffer@bufferSize
  6939  0449  3F41               	moviw [1]fsr1
  6940  044A  00F1               	movwf	I2C2_SetBuffer@bufferSize+1
  6941  044B  0879               	movf	rdBlkRegCompleteHandler@ptr,w
  6942  044C  3E02               	addlw	2
  6943  044D  0086               	movwf	6
  6944  044E  0187               	clrf	7
  6945  044F  0801               	movf	1,w
  6946  0450  3183  23F0  3184   	fcall	_I2C2_SetBuffer
  6947                           
  6948                           ;mcc_generated_files/examples/i2c2_master_example.c: 173:     I2C2_SetDataCompleteCallba
      +                          ck(((void*)0),((void*)0));
  6949  0453  3000               	movlw	0
  6950  0454  00F5               	movwf	I2C2_SetDataCompleteCallback@cb
  6951  0455  00F6               	movwf	I2C2_SetDataCompleteCallback@cb+1
  6952  0456  01F7               	clrf	I2C2_SetDataCompleteCallback@ptr
  6953  0457  3183  23BC  3184   	fcall	_I2C2_SetDataCompleteCallback
  6954  045A                     l2069:	
  6955                           
  6956                           ;mcc_generated_files/examples/i2c2_master_example.c: 174:     return I2C2_RESTART_READ;
  6957  045A  3002               	movlw	2
  6958  045B                     l102:	
  6959  045B  0008               	return
  6960  045C                     __end_of_rdBlkRegCompleteHandler:	
  6961                           
  6962                           	psect	text42
  6963  0433                     __ptext42:	
  6964 ;; *************** function _wr1RegCompleteHandler *****************
  6965 ;; Defined at:
  6966 ;;		line 156 in file "mcc_generated_files/examples/i2c2_master_example.c"
  6967 ;; Parameters:    Size  Location     Type
  6968 ;;  ptr             1    9[COMMON] PTR void 
  6969 ;;		 -> I2C2_ReadDataBlock@bufferBlock(3), I2C2_Write2ByteRegister@data(2), I2C2_Write1ByteRegister@data(1), I2C2_Read2B
      +yteRegister@returnValue(2), 
  6970 ;;		 -> NULL(0), I2C2_Read1ByteRegister@returnValue(1), 
  6971 ;; Auto vars:     Size  Location     Type
  6972 ;;		None
  6973 ;; Return value:  Size  Location     Type
  6974 ;;                  1    wreg      enum E358
  6975 ;; Registers used:
  6976 ;;		wreg, fsr1l, fsr1h, status,2, status,0, pclath, cstack
  6977 ;; Tracked objects:
  6978 ;;		On entry : 0/0
  6979 ;;		On exit  : 0/0
  6980 ;;		Unchanged: 0/0
  6981 ;; Data sizes:     COMMON   BANK0   BANK1   BANK2   BANK3   BANK4   BANK5   BANK6   BANK7   BANK8   BANK9  BANK10  BANK1
      +1  BANK12  BANK13  BANK14  BANK15  BANK16  BANK17  BANK18  BANK19  BANK20  BANK21  BANK22  BANK23  BANK24  BANK25
  6982 ;;      Params:         1       0       0       0       0       0       0       0       0       0       0       0       
      +0       0       0       0       0       0       0       0       0       0       0       0       0       0       0
  6983 ;;      Locals:         0       0       0       0       0       0       0       0       0       0       0       0       
      +0       0       0       0       0       0       0       0       0       0       0       0       0       0       0
  6984 ;;      Temps:          0       0       0       0       0       0       0       0       0       0       0       0       
      +0       0       0       0       0       0       0       0       0       0       0       0       0       0       0
  6985 ;;      Totals:         1       0       0       0       0       0       0       0       0       0       0       0       
      +0       0       0       0       0       0       0       0       0       0       0       0       0       0       0
  6986 ;;Total ram usage:        1 bytes
  6987 ;; Hardware stack levels used:    1
  6988 ;; Hardware stack levels required when called:    2
  6989 ;; This function calls:
  6990 ;;		_I2C2_SetBuffer
  6991 ;;		_I2C2_SetDataCompleteCallback
  6992 ;; This function is called by:
  6993 ;;		_I2C2_Write1ByteRegister
  6994 ;;		_I2C2_DO_TX
  6995 ;;		_I2C2_DO_RX
  6996 ;;		_I2C2_DO_TX_EMPTY
  6997 ;;		_I2C2_DO_ADDRESS_NACK
  6998 ;;		_I2C2_DO_RX_EMPTY
  6999 ;; This function uses a non-reentrant model
  7000 ;;
  7001                           
  7002                           
  7003                           ;psect for function _wr1RegCompleteHandler
  7004  0433                     _wr1RegCompleteHandler:	
  7005  0433                     l2051:	
  7006                           ;incstack = 0
  7007                           ; Regs used in _wr1RegCompleteHandler: [wreg+fsr1l+fsr1h+status,2+status,0+pclath+cstack
      +                          ]
  7008                           
  7009                           
  7010                           ;mcc_generated_files/examples/i2c2_master_example.c: 156: static i2c2_operations_t wr1Re
      +                          gCompleteHandler(void *ptr);mcc_generated_files/examples/i2c2_master_example.c: 157: {;m
      +                          cc_generated_files/examples/i2c2_master_example.c: 158:     I2C2_SetBuffer(ptr,1);
  7011  0433  3001               	movlw	1
  7012  0434  00F0               	movwf	I2C2_SetBuffer@bufferSize
  7013  0435  3000               	movlw	0
  7014  0436  00F1               	movwf	I2C2_SetBuffer@bufferSize+1
  7015  0437  0879               	movf	wr1RegCompleteHandler@ptr,w
  7016  0438  3183  23F0  3184   	fcall	_I2C2_SetBuffer
  7017  043B                     l2053:	
  7018                           
  7019                           ;mcc_generated_files/examples/i2c2_master_example.c: 159:     I2C2_SetDataCompleteCallba
      +                          ck(((void*)0),((void*)0));
  7020  043B  3000               	movlw	0
  7021  043C  00F5               	movwf	I2C2_SetDataCompleteCallback@cb
  7022  043D  00F6               	movwf	I2C2_SetDataCompleteCallback@cb+1
  7023  043E  01F7               	clrf	I2C2_SetDataCompleteCallback@ptr
  7024  043F  3183  23BC  3184   	fcall	_I2C2_SetDataCompleteCallback
  7025  0442                     l2055:	
  7026                           
  7027                           ;mcc_generated_files/examples/i2c2_master_example.c: 160:     return I2C2_CONTINUE;
  7028  0442  3004               	movlw	4
  7029  0443                     l96:	
  7030  0443  0008               	return
  7031  0444                     __end_of_wr1RegCompleteHandler:	
  7032                           
  7033                           	psect	text43
  7034  0422                     __ptext43:	
  7035 ;; *************** function _rd2RegCompleteHandler *****************
  7036 ;; Defined at:
  7037 ;;		line 149 in file "mcc_generated_files/examples/i2c2_master_example.c"
  7038 ;; Parameters:    Size  Location     Type
  7039 ;;  ptr             1    9[COMMON] PTR void 
  7040 ;;		 -> I2C2_ReadDataBlock@bufferBlock(3), I2C2_Write2ByteRegister@data(2), I2C2_Write1ByteRegister@data(1), I2C2_Read2B
      +yteRegister@returnValue(2), 
  7041 ;;		 -> NULL(0), I2C2_Read1ByteRegister@returnValue(1), 
  7042 ;; Auto vars:     Size  Location     Type
  7043 ;;		None
  7044 ;; Return value:  Size  Location     Type
  7045 ;;                  1    wreg      enum E358
  7046 ;; Registers used:
  7047 ;;		wreg, fsr1l, fsr1h, status,2, status,0, pclath, cstack
  7048 ;; Tracked objects:
  7049 ;;		On entry : 0/0
  7050 ;;		On exit  : 0/0
  7051 ;;		Unchanged: 0/0
  7052 ;; Data sizes:     COMMON   BANK0   BANK1   BANK2   BANK3   BANK4   BANK5   BANK6   BANK7   BANK8   BANK9  BANK10  BANK1
      +1  BANK12  BANK13  BANK14  BANK15  BANK16  BANK17  BANK18  BANK19  BANK20  BANK21  BANK22  BANK23  BANK24  BANK25
  7053 ;;      Params:         1       0       0       0       0       0       0       0       0       0       0       0       
      +0       0       0       0       0       0       0       0       0       0       0       0       0       0       0
  7054 ;;      Locals:         0       0       0       0       0       0       0       0       0       0       0       0       
      +0       0       0       0       0       0       0       0       0       0       0       0       0       0       0
  7055 ;;      Temps:          0       0       0       0       0       0       0       0       0       0       0       0       
      +0       0       0       0       0       0       0       0       0       0       0       0       0       0       0
  7056 ;;      Totals:         1       0       0       0       0       0       0       0       0       0       0       0       
      +0       0       0       0       0       0       0       0       0       0       0       0       0       0       0
  7057 ;;Total ram usage:        1 bytes
  7058 ;; Hardware stack levels used:    1
  7059 ;; Hardware stack levels required when called:    2
  7060 ;; This function calls:
  7061 ;;		_I2C2_SetBuffer
  7062 ;;		_I2C2_SetDataCompleteCallback
  7063 ;; This function is called by:
  7064 ;;		_I2C2_Read2ByteRegister
  7065 ;;		_I2C2_DO_TX
  7066 ;;		_I2C2_DO_RX
  7067 ;;		_I2C2_DO_TX_EMPTY
  7068 ;;		_I2C2_DO_ADDRESS_NACK
  7069 ;;		_I2C2_DO_RX_EMPTY
  7070 ;; This function uses a non-reentrant model
  7071 ;;
  7072                           
  7073                           
  7074                           ;psect for function _rd2RegCompleteHandler
  7075  0422                     _rd2RegCompleteHandler:	
  7076  0422                     l2043:	
  7077                           ;incstack = 0
  7078                           ; Regs used in _rd2RegCompleteHandler: [wreg+fsr1l+fsr1h+status,2+status,0+pclath+cstack
      +                          ]
  7079                           
  7080                           
  7081                           ;mcc_generated_files/examples/i2c2_master_example.c: 149: static i2c2_operations_t rd2Re
      +                          gCompleteHandler(void *ptr);mcc_generated_files/examples/i2c2_master_example.c: 150: {;m
      +                          cc_generated_files/examples/i2c2_master_example.c: 151:     I2C2_SetBuffer(ptr,2);
  7082  0422  3002               	movlw	2
  7083  0423  00F0               	movwf	I2C2_SetBuffer@bufferSize
  7084  0424  3000               	movlw	0
  7085  0425  00F1               	movwf	I2C2_SetBuffer@bufferSize+1
  7086  0426  0879               	movf	rd2RegCompleteHandler@ptr,w
  7087  0427  3183  23F0  3184   	fcall	_I2C2_SetBuffer
  7088  042A                     l2045:	
  7089                           
  7090                           ;mcc_generated_files/examples/i2c2_master_example.c: 152:     I2C2_SetDataCompleteCallba
      +                          ck(((void*)0),((void*)0));
  7091  042A  3000               	movlw	0
  7092  042B  00F5               	movwf	I2C2_SetDataCompleteCallback@cb
  7093  042C  00F6               	movwf	I2C2_SetDataCompleteCallback@cb+1
  7094  042D  01F7               	clrf	I2C2_SetDataCompleteCallback@ptr
  7095  042E  3183  23BC  3184   	fcall	_I2C2_SetDataCompleteCallback
  7096  0431                     l2047:	
  7097                           
  7098                           ;mcc_generated_files/examples/i2c2_master_example.c: 153:     return I2C2_RESTART_READ;
  7099  0431  3002               	movlw	2
  7100  0432                     l93:	
  7101  0432  0008               	return
  7102  0433                     __end_of_rd2RegCompleteHandler:	
  7103                           
  7104                           	psect	text44
  7105  0411                     __ptext44:	
  7106 ;; *************** function _rd1RegCompleteHandler *****************
  7107 ;; Defined at:
  7108 ;;		line 142 in file "mcc_generated_files/examples/i2c2_master_example.c"
  7109 ;; Parameters:    Size  Location     Type
  7110 ;;  ptr             1    9[COMMON] PTR void 
  7111 ;;		 -> I2C2_ReadDataBlock@bufferBlock(3), I2C2_Write2ByteRegister@data(2), I2C2_Write1ByteRegister@data(1), I2C2_Read2B
      +yteRegister@returnValue(2), 
  7112 ;;		 -> NULL(0), I2C2_Read1ByteRegister@returnValue(1), 
  7113 ;; Auto vars:     Size  Location     Type
  7114 ;;		None
  7115 ;; Return value:  Size  Location     Type
  7116 ;;                  1    wreg      enum E358
  7117 ;; Registers used:
  7118 ;;		wreg, fsr1l, fsr1h, status,2, status,0, pclath, cstack
  7119 ;; Tracked objects:
  7120 ;;		On entry : 0/0
  7121 ;;		On exit  : 0/0
  7122 ;;		Unchanged: 0/0
  7123 ;; Data sizes:     COMMON   BANK0   BANK1   BANK2   BANK3   BANK4   BANK5   BANK6   BANK7   BANK8   BANK9  BANK10  BANK1
      +1  BANK12  BANK13  BANK14  BANK15  BANK16  BANK17  BANK18  BANK19  BANK20  BANK21  BANK22  BANK23  BANK24  BANK25
  7124 ;;      Params:         1       0       0       0       0       0       0       0       0       0       0       0       
      +0       0       0       0       0       0       0       0       0       0       0       0       0       0       0
  7125 ;;      Locals:         0       0       0       0       0       0       0       0       0       0       0       0       
      +0       0       0       0       0       0       0       0       0       0       0       0       0       0       0
  7126 ;;      Temps:          0       0       0       0       0       0       0       0       0       0       0       0       
      +0       0       0       0       0       0       0       0       0       0       0       0       0       0       0
  7127 ;;      Totals:         1       0       0       0       0       0       0       0       0       0       0       0       
      +0       0       0       0       0       0       0       0       0       0       0       0       0       0       0
  7128 ;;Total ram usage:        1 bytes
  7129 ;; Hardware stack levels used:    1
  7130 ;; Hardware stack levels required when called:    2
  7131 ;; This function calls:
  7132 ;;		_I2C2_SetBuffer
  7133 ;;		_I2C2_SetDataCompleteCallback
  7134 ;; This function is called by:
  7135 ;;		_I2C2_Read1ByteRegister
  7136 ;;		_I2C2_DO_TX
  7137 ;;		_I2C2_DO_RX
  7138 ;;		_I2C2_DO_TX_EMPTY
  7139 ;;		_I2C2_DO_ADDRESS_NACK
  7140 ;;		_I2C2_DO_RX_EMPTY
  7141 ;; This function uses a non-reentrant model
  7142 ;;
  7143                           
  7144                           
  7145                           ;psect for function _rd1RegCompleteHandler
  7146  0411                     _rd1RegCompleteHandler:	
  7147  0411                     l2035:	
  7148                           ;incstack = 0
  7149                           ; Regs used in _rd1RegCompleteHandler: [wreg+fsr1l+fsr1h+status,2+status,0+pclath+cstack
      +                          ]
  7150                           
  7151                           
  7152                           ;mcc_generated_files/examples/i2c2_master_example.c: 142: static i2c2_operations_t rd1Re
      +                          gCompleteHandler(void *ptr);mcc_generated_files/examples/i2c2_master_example.c: 143: {;m
      +                          cc_generated_files/examples/i2c2_master_example.c: 144:     I2C2_SetBuffer(ptr,1);
  7153  0411  3001               	movlw	1
  7154  0412  00F0               	movwf	I2C2_SetBuffer@bufferSize
  7155  0413  3000               	movlw	0
  7156  0414  00F1               	movwf	I2C2_SetBuffer@bufferSize+1
  7157  0415  0879               	movf	rd1RegCompleteHandler@ptr,w
  7158  0416  3183  23F0  3184   	fcall	_I2C2_SetBuffer
  7159  0419                     l2037:	
  7160                           
  7161                           ;mcc_generated_files/examples/i2c2_master_example.c: 145:     I2C2_SetDataCompleteCallba
      +                          ck(((void*)0),((void*)0));
  7162  0419  3000               	movlw	0
  7163  041A  00F5               	movwf	I2C2_SetDataCompleteCallback@cb
  7164  041B  00F6               	movwf	I2C2_SetDataCompleteCallback@cb+1
  7165  041C  01F7               	clrf	I2C2_SetDataCompleteCallback@ptr
  7166  041D  3183  23BC  3184   	fcall	_I2C2_SetDataCompleteCallback
  7167  0420                     l2039:	
  7168                           
  7169                           ;mcc_generated_files/examples/i2c2_master_example.c: 146:     return I2C2_RESTART_READ;
  7170  0420  3002               	movlw	2
  7171  0421                     l90:	
  7172  0421  0008               	return
  7173  0422                     __end_of_rd1RegCompleteHandler:	
  7174                           
  7175                           	psect	text45
  7176  0400                     __ptext45:	
  7177 ;; *************** function _wr2RegCompleteHandler *****************
  7178 ;; Defined at:
  7179 ;;		line 163 in file "mcc_generated_files/examples/i2c2_master_example.c"
  7180 ;; Parameters:    Size  Location     Type
  7181 ;;  ptr             1    9[COMMON] PTR void 
  7182 ;;		 -> I2C2_ReadDataBlock@bufferBlock(3), I2C2_Write2ByteRegister@data(2), I2C2_Write1ByteRegister@data(1), I2C2_Read2B
      +yteRegister@returnValue(2), 
  7183 ;;		 -> NULL(0), I2C2_Read1ByteRegister@returnValue(1), 
  7184 ;; Auto vars:     Size  Location     Type
  7185 ;;		None
  7186 ;; Return value:  Size  Location     Type
  7187 ;;                  1    wreg      enum E358
  7188 ;; Registers used:
  7189 ;;		wreg, fsr1l, fsr1h, status,2, status,0, pclath, cstack
  7190 ;; Tracked objects:
  7191 ;;		On entry : 0/0
  7192 ;;		On exit  : 0/0
  7193 ;;		Unchanged: 0/0
  7194 ;; Data sizes:     COMMON   BANK0   BANK1   BANK2   BANK3   BANK4   BANK5   BANK6   BANK7   BANK8   BANK9  BANK10  BANK1
      +1  BANK12  BANK13  BANK14  BANK15  BANK16  BANK17  BANK18  BANK19  BANK20  BANK21  BANK22  BANK23  BANK24  BANK25
  7195 ;;      Params:         1       0       0       0       0       0       0       0       0       0       0       0       
      +0       0       0       0       0       0       0       0       0       0       0       0       0       0       0
  7196 ;;      Locals:         0       0       0       0       0       0       0       0       0       0       0       0       
      +0       0       0       0       0       0       0       0       0       0       0       0       0       0       0
  7197 ;;      Temps:          0       0       0       0       0       0       0       0       0       0       0       0       
      +0       0       0       0       0       0       0       0       0       0       0       0       0       0       0
  7198 ;;      Totals:         1       0       0       0       0       0       0       0       0       0       0       0       
      +0       0       0       0       0       0       0       0       0       0       0       0       0       0       0
  7199 ;;Total ram usage:        1 bytes
  7200 ;; Hardware stack levels used:    1
  7201 ;; Hardware stack levels required when called:    2
  7202 ;; This function calls:
  7203 ;;		_I2C2_SetBuffer
  7204 ;;		_I2C2_SetDataCompleteCallback
  7205 ;; This function is called by:
  7206 ;;		_I2C2_Write2ByteRegister
  7207 ;;		_I2C2_DO_TX
  7208 ;;		_I2C2_DO_RX
  7209 ;;		_I2C2_DO_TX_EMPTY
  7210 ;;		_I2C2_DO_ADDRESS_NACK
  7211 ;;		_I2C2_DO_RX_EMPTY
  7212 ;; This function uses a non-reentrant model
  7213 ;;
  7214                           
  7215                           
  7216                           ;psect for function _wr2RegCompleteHandler
  7217  0400                     _wr2RegCompleteHandler:	
  7218  0400                     l2059:	
  7219                           ;incstack = 0
  7220                           ; Regs used in _wr2RegCompleteHandler: [wreg+fsr1l+fsr1h+status,2+status,0+pclath+cstack
      +                          ]
  7221                           
  7222                           
  7223                           ;mcc_generated_files/examples/i2c2_master_example.c: 163: static i2c2_operations_t wr2Re
      +                          gCompleteHandler(void *ptr);mcc_generated_files/examples/i2c2_master_example.c: 164: {;m
      +                          cc_generated_files/examples/i2c2_master_example.c: 165:     I2C2_SetBuffer(ptr,2);
  7224  0400  3002               	movlw	2
  7225  0401  00F0               	movwf	I2C2_SetBuffer@bufferSize
  7226  0402  3000               	movlw	0
  7227  0403  00F1               	movwf	I2C2_SetBuffer@bufferSize+1
  7228  0404  0879               	movf	wr2RegCompleteHandler@ptr,w
  7229  0405  3183  23F0  3184   	fcall	_I2C2_SetBuffer
  7230  0408                     l2061:	
  7231                           
  7232                           ;mcc_generated_files/examples/i2c2_master_example.c: 166:     I2C2_SetDataCompleteCallba
      +                          ck(((void*)0),((void*)0));
  7233  0408  3000               	movlw	0
  7234  0409  00F5               	movwf	I2C2_SetDataCompleteCallback@cb
  7235  040A  00F6               	movwf	I2C2_SetDataCompleteCallback@cb+1
  7236  040B  01F7               	clrf	I2C2_SetDataCompleteCallback@ptr
  7237  040C  3183  23BC  3184   	fcall	_I2C2_SetDataCompleteCallback
  7238  040F                     l2063:	
  7239                           
  7240                           ;mcc_generated_files/examples/i2c2_master_example.c: 167:     return I2C2_CONTINUE;
  7241  040F  3004               	movlw	4
  7242  0410                     l99:	
  7243  0410  0008               	return
  7244  0411                     __end_of_wr2RegCompleteHandler:	
  7245                           
  7246                           	psect	text46
  7247  03BC                     __ptext46:	
  7248 ;; *************** function _I2C2_SetDataCompleteCallback *****************
  7249 ;; Defined at:
  7250 ;;		line 273 in file "mcc_generated_files/i2c2_master.c"
  7251 ;; Parameters:    Size  Location     Type
  7252 ;;  cb              2    5[COMMON] PTR FTN(PTR void ,)enum 
  7253 ;;		 -> Absolute function(1), rdBlkRegCompleteHandler(1), wr2RegCompleteHandler(1), wr1RegCompleteHandler(1), 
  7254 ;;		 -> rd2RegCompleteHandler(1), rd1RegCompleteHandler(1), 
  7255 ;;  ptr             1    7[COMMON] PTR void 
  7256 ;;		 -> I2C2_ReadDataBlock@bufferBlock(3), I2C2_Write2ByteRegister@data(2), I2C2_Write1ByteRegister@data(1), I2C2_Read2B
      +yteRegister@returnValue(2), 
  7257 ;;		 -> NULL(0), I2C2_Read1ByteRegister@returnValue(1), 
  7258 ;; Auto vars:     Size  Location     Type
  7259 ;;		None
  7260 ;; Return value:  Size  Location     Type
  7261 ;;                  1    wreg      void 
  7262 ;; Registers used:
  7263 ;;		wreg, fsr1l, fsr1h, status,2, status,0, pclath, cstack
  7264 ;; Tracked objects:
  7265 ;;		On entry : 0/0
  7266 ;;		On exit  : 0/0
  7267 ;;		Unchanged: 0/0
  7268 ;; Data sizes:     COMMON   BANK0   BANK1   BANK2   BANK3   BANK4   BANK5   BANK6   BANK7   BANK8   BANK9  BANK10  BANK1
      +1  BANK12  BANK13  BANK14  BANK15  BANK16  BANK17  BANK18  BANK19  BANK20  BANK21  BANK22  BANK23  BANK24  BANK25
  7269 ;;      Params:         3       0       0       0       0       0       0       0       0       0       0       0       
      +0       0       0       0       0       0       0       0       0       0       0       0       0       0       0
  7270 ;;      Locals:         0       0       0       0       0       0       0       0       0       0       0       0       
      +0       0       0       0       0       0       0       0       0       0       0       0       0       0       0
  7271 ;;      Temps:          1       0       0       0       0       0       0       0       0       0       0       0       
      +0       0       0       0       0       0       0       0       0       0       0       0       0       0       0
  7272 ;;      Totals:         4       0       0       0       0       0       0       0       0       0       0       0       
      +0       0       0       0       0       0       0       0       0       0       0       0       0       0       0
  7273 ;;Total ram usage:        4 bytes
  7274 ;; Hardware stack levels used:    1
  7275 ;; Hardware stack levels required when called:    1
  7276 ;; This function calls:
  7277 ;;		_I2C2_SetCallback
  7278 ;; This function is called by:
  7279 ;;		_rd1RegCompleteHandler
  7280 ;;		_rd2RegCompleteHandler
  7281 ;;		_wr1RegCompleteHandler
  7282 ;;		_wr2RegCompleteHandler
  7283 ;;		_rdBlkRegCompleteHandler
  7284 ;;		_I2C2_Read1ByteRegister
  7285 ;;		_I2C2_Read2ByteRegister
  7286 ;;		_I2C2_Write1ByteRegister
  7287 ;;		_I2C2_Write2ByteRegister
  7288 ;;		_I2C2_ReadDataBlock
  7289 ;; This function uses a non-reentrant model
  7290 ;;
  7291                           
  7292                           
  7293                           ;psect for function _I2C2_SetDataCompleteCallback
  7294  03BC                     _I2C2_SetDataCompleteCallback:	
  7295  03BC                     l2021:	
  7296                           ;incstack = 0
  7297                           ; Regs used in _I2C2_SetDataCompleteCallback: [wreg+fsr1l+fsr1h+status,2+status,0+pclath
      +                          +cstack]
  7298                           
  7299                           
  7300                           ;mcc_generated_files/i2c2_master.c: 273: void I2C2_SetDataCompleteCallback(i2c2_callback
      +                          _t cb, void *ptr);mcc_generated_files/i2c2_master.c: 274: {;mcc_generated_files/i2c2_mas
      +                          ter.c: 275:     I2C2_SetCallback(I2C2_DATA_COMPLETE, cb, ptr);
  7301  03BC  0876               	movf	I2C2_SetDataCompleteCallback@cb+1,w
  7302  03BD  00F1               	movwf	I2C2_SetCallback@cb+1
  7303  03BE  0875               	movf	I2C2_SetDataCompleteCallback@cb,w
  7304  03BF  00F0               	movwf	I2C2_SetCallback@cb
  7305  03C0  0877               	movf	I2C2_SetDataCompleteCallback@ptr,w
  7306  03C1  00F8               	movwf	??_I2C2_SetDataCompleteCallback
  7307  03C2  0878               	movf	??_I2C2_SetDataCompleteCallback,w
  7308  03C3  00F2               	movwf	I2C2_SetCallback@ptr
  7309  03C4  3000               	movlw	0
  7310  03C5  3184  2497  3183   	fcall	_I2C2_SetCallback
  7311  03C8                     l336:	
  7312  03C8  0008               	return
  7313  03C9                     __end_of_I2C2_SetDataCompleteCallback:	
  7314                           
  7315                           	psect	text47
  7316  0497                     __ptext47:	
  7317 ;; *************** function _I2C2_SetCallback *****************
  7318 ;; Defined at:
  7319 ;;		line 298 in file "mcc_generated_files/i2c2_master.c"
  7320 ;; Parameters:    Size  Location     Type
  7321 ;;  idx             1    wreg     enum E11302
  7322 ;;  cb              2    0[COMMON] PTR FTN(PTR void ,)enum 
  7323 ;;		 -> Absolute function(1), rdBlkRegCompleteHandler(1), wr2RegCompleteHandler(1), wr1RegCompleteHandler(1), 
  7324 ;;		 -> rd2RegCompleteHandler(1), rd1RegCompleteHandler(1), 
  7325 ;;  ptr             1    2[COMMON] PTR void 
  7326 ;;		 -> I2C2_ReadDataBlock@bufferBlock(3), I2C2_Write2ByteRegister@data(2), I2C2_Write1ByteRegister@data(1), I2C2_Read2B
      +yteRegister@returnValue(2), 
  7327 ;;		 -> NULL(0), I2C2_Read1ByteRegister@returnValue(1), 
  7328 ;; Auto vars:     Size  Location     Type
  7329 ;;  idx             1    4[COMMON] enum E11302
  7330 ;; Return value:  Size  Location     Type
  7331 ;;                  1    wreg      void 
  7332 ;; Registers used:
  7333 ;;		wreg, fsr1l, fsr1h, status,2, status,0
  7334 ;; Tracked objects:
  7335 ;;		On entry : 0/0
  7336 ;;		On exit  : 0/0
  7337 ;;		Unchanged: 0/0
  7338 ;; Data sizes:     COMMON   BANK0   BANK1   BANK2   BANK3   BANK4   BANK5   BANK6   BANK7   BANK8   BANK9  BANK10  BANK1
      +1  BANK12  BANK13  BANK14  BANK15  BANK16  BANK17  BANK18  BANK19  BANK20  BANK21  BANK22  BANK23  BANK24  BANK25
  7339 ;;      Params:         3       0       0       0       0       0       0       0       0       0       0       0       
      +0       0       0       0       0       0       0       0       0       0       0       0       0       0       0
  7340 ;;      Locals:         1       0       0       0       0       0       0       0       0       0       0       0       
      +0       0       0       0       0       0       0       0       0       0       0       0       0       0       0
  7341 ;;      Temps:          1       0       0       0       0       0       0       0       0       0       0       0       
      +0       0       0       0       0       0       0       0       0       0       0       0       0       0       0
  7342 ;;      Totals:         5       0       0       0       0       0       0       0       0       0       0       0       
      +0       0       0       0       0       0       0       0       0       0       0       0       0       0       0
  7343 ;;Total ram usage:        5 bytes
  7344 ;; Hardware stack levels used:    1
  7345 ;; This function calls:
  7346 ;;		Nothing
  7347 ;; This function is called by:
  7348 ;;		_I2C2_SetDataCompleteCallback
  7349 ;;		_I2C2_SetWriteCollisionCallback
  7350 ;;		_I2C2_SetAddressNackCallback
  7351 ;;		_I2C2_SetDataNackCallback
  7352 ;;		_I2C2_SetTimeoutCallback
  7353 ;; This function uses a non-reentrant model
  7354 ;;
  7355                           
  7356                           
  7357                           ;psect for function _I2C2_SetCallback
  7358  0497                     _I2C2_SetCallback:	
  7359                           
  7360                           ;incstack = 0
  7361                           ; Regs used in _I2C2_SetCallback: [wreg+fsr1l+fsr1h+status,2+status,0]
  7362                           ;I2C2_SetCallback@idx stored from wreg
  7363  0497  00F4               	movwf	I2C2_SetCallback@idx
  7364  0498                     l2015:	
  7365                           
  7366                           ;mcc_generated_files/i2c2_master.c: 298: static void I2C2_SetCallback(i2c2_callbackIndex
      +                          _t idx, i2c2_callback_t cb, void *ptr);mcc_generated_files/i2c2_master.c: 299: {;mcc_gen
      +                          erated_files/i2c2_master.c: 300:     if(cb)
  7367  0498  0870               	movf	I2C2_SetCallback@cb,w
  7368  0499  0471               	iorwf	I2C2_SetCallback@cb+1,w
  7369  049A  1903               	btfsc	3,2
  7370  049B  2C9D               	goto	u591
  7371  049C  2C9E               	goto	u590
  7372  049D                     u591:	
  7373  049D  2CAF               	goto	l2019
  7374  049E                     u590:	
  7375  049E                     l2017:	
  7376                           
  7377                           ;mcc_generated_files/i2c2_master.c: 301:     {;mcc_generated_files/i2c2_master.c: 302:  
      +                                 I2C2_Status.callbackTable[idx] = cb;
  7378  049E  3574               	lslf	I2C2_SetCallback@idx,w
  7379  049F  3E20               	addlw	(low (_I2C2_Status| 0))& (0+255)
  7380  04A0  0086               	movwf	6
  7381  04A1  0187               	clrf	7
  7382  04A2  0870               	movf	I2C2_SetCallback@cb,w
  7383  04A3  3FC0               	movwi [0]fsr1
  7384  04A4  0871               	movf	I2C2_SetCallback@cb+1,w
  7385  04A5  3FC1               	movwi [1]fsr1
  7386                           
  7387                           ;mcc_generated_files/i2c2_master.c: 303:         I2C2_Status.callbackPayload[idx] = ptr;
  7388  04A6  0872               	movf	I2C2_SetCallback@ptr,w
  7389  04A7  00F3               	movwf	??_I2C2_SetCallback
  7390  04A8  0874               	movf	I2C2_SetCallback@idx,w
  7391  04A9  3E2C               	addlw	(low ((_I2C2_Status| 0+12)))& (0+255)
  7392  04AA  0086               	movwf	6
  7393  04AB  0187               	clrf	7
  7394  04AC  0873               	movf	??_I2C2_SetCallback,w
  7395  04AD  0081               	movwf	1
  7396                           
  7397                           ;mcc_generated_files/i2c2_master.c: 304:     }
  7398  04AE  2CBC               	goto	l353
  7399  04AF                     l2019:	
  7400                           
  7401                           ;mcc_generated_files/i2c2_master.c: 306:     {;mcc_generated_files/i2c2_master.c: 307:  
      +                                 I2C2_Status.callbackTable[idx] = I2C2_CallbackReturnStop;
  7402  04AF  3574               	lslf	I2C2_SetCallback@idx,w
  7403  04B0  3E20               	addlw	(low (_I2C2_Status| 0))& (0+255)
  7404  04B1  0086               	movwf	6
  7405  04B2  0187               	clrf	7
  7406  04B3  301D               	movlw	low _I2C2_CallbackReturnStop
  7407  04B4  3FC0               	movwi [0]fsr1
  7408  04B5  3003               	movlw	high _I2C2_CallbackReturnStop
  7409  04B6  3FC1               	movwi [1]fsr1
  7410                           
  7411                           ;mcc_generated_files/i2c2_master.c: 308:         I2C2_Status.callbackPayload[idx] = ((vo
      +                          id*)0);
  7412  04B7  0874               	movf	I2C2_SetCallback@idx,w
  7413  04B8  3E2C               	addlw	(low ((_I2C2_Status| 0+12)))& (0+255)
  7414  04B9  0086               	movwf	6
  7415  04BA  0187               	clrf	7
  7416  04BB  0181               	clrf	1
  7417  04BC                     l353:	
  7418  04BC  0008               	return
  7419  04BD                     __end_of_I2C2_SetCallback:	
  7420                           
  7421                           	psect	text48
  7422  03F0                     __ptext48:	
  7423 ;; *************** function _I2C2_SetBuffer *****************
  7424 ;; Defined at:
  7425 ;;		line 263 in file "mcc_generated_files/i2c2_master.c"
  7426 ;; Parameters:    Size  Location     Type
  7427 ;;  buffer          1    wreg     PTR void 
  7428 ;;		 -> DispWriteValue@packets(8), I2C2_ReadDataBlock@reg(1), I2C2_ReadDataBlock@bufferBlock(3), I2C2_Write2ByteRegister
      +@reg(1), 
  7429 ;;		 -> I2C2_Write2ByteRegister@data(2), I2C2_Write1ByteRegister@reg(1), I2C2_Write1ByteRegister@data(1), I2C2_Read2Byte
      +Register@reg(1), 
  7430 ;;		 -> I2C2_Read2ByteRegister@returnValue(2), NULL(0), I2C2_Read1ByteRegister@reg(1), I2C2_Read1ByteRegister@returnValu
      +e(1), 
  7431 ;;  bufferSize      2    0[COMMON] unsigned int 
  7432 ;; Auto vars:     Size  Location     Type
  7433 ;;  buffer          1    3[COMMON] PTR void 
  7434 ;;		 -> DispWriteValue@packets(8), I2C2_ReadDataBlock@reg(1), I2C2_ReadDataBlock@bufferBlock(3), I2C2_Write2ByteRegister
      +@reg(1), 
  7435 ;;		 -> I2C2_Write2ByteRegister@data(2), I2C2_Write1ByteRegister@reg(1), I2C2_Write1ByteRegister@data(1), I2C2_Read2Byte
      +Register@reg(1), 
  7436 ;;		 -> I2C2_Read2ByteRegister@returnValue(2), NULL(0), I2C2_Read1ByteRegister@reg(1), I2C2_Read1ByteRegister@returnValu
      +e(1), 
  7437 ;; Return value:  Size  Location     Type
  7438 ;;                  1    wreg      void 
  7439 ;; Registers used:
  7440 ;;		wreg
  7441 ;; Tracked objects:
  7442 ;;		On entry : 0/0
  7443 ;;		On exit  : 0/0
  7444 ;;		Unchanged: 0/0
  7445 ;; Data sizes:     COMMON   BANK0   BANK1   BANK2   BANK3   BANK4   BANK5   BANK6   BANK7   BANK8   BANK9  BANK10  BANK1
      +1  BANK12  BANK13  BANK14  BANK15  BANK16  BANK17  BANK18  BANK19  BANK20  BANK21  BANK22  BANK23  BANK24  BANK25
  7446 ;;      Params:         2       0       0       0       0       0       0       0       0       0       0       0       
      +0       0       0       0       0       0       0       0       0       0       0       0       0       0       0
  7447 ;;      Locals:         1       0       0       0       0       0       0       0       0       0       0       0       
      +0       0       0       0       0       0       0       0       0       0       0       0       0       0       0
  7448 ;;      Temps:          1       0       0       0       0       0       0       0       0       0       0       0       
      +0       0       0       0       0       0       0       0       0       0       0       0       0       0       0
  7449 ;;      Totals:         4       0       0       0       0       0       0       0       0       0       0       0       
      +0       0       0       0       0       0       0       0       0       0       0       0       0       0       0
  7450 ;;Total ram usage:        4 bytes
  7451 ;; Hardware stack levels used:    1
  7452 ;; This function calls:
  7453 ;;		Nothing
  7454 ;; This function is called by:
  7455 ;;		_rd1RegCompleteHandler
  7456 ;;		_rd2RegCompleteHandler
  7457 ;;		_wr1RegCompleteHandler
  7458 ;;		_wr2RegCompleteHandler
  7459 ;;		_rdBlkRegCompleteHandler
  7460 ;;		_SendI2CData
  7461 ;;		_I2C2_Read1ByteRegister
  7462 ;;		_I2C2_Read2ByteRegister
  7463 ;;		_I2C2_Write1ByteRegister
  7464 ;;		_I2C2_Write2ByteRegister
  7465 ;;		_I2C2_WriteNBytes
  7466 ;;		_I2C2_ReadNBytes
  7467 ;;		_I2C2_ReadDataBlock
  7468 ;; This function uses a non-reentrant model
  7469 ;;
  7470                           
  7471                           
  7472                           ;psect for function _I2C2_SetBuffer
  7473  03F0                     _I2C2_SetBuffer:	
  7474                           
  7475                           ;incstack = 0
  7476                           ; Regs used in _I2C2_SetBuffer: [wreg]
  7477                           ;I2C2_SetBuffer@buffer stored from wreg
  7478  03F0  00F3               	movwf	I2C2_SetBuffer@buffer
  7479  03F1                     l2023:	
  7480                           
  7481                           ;mcc_generated_files/i2c2_master.c: 263: void I2C2_SetBuffer(void *buffer, size_t buffer
      +                          Size);mcc_generated_files/i2c2_master.c: 264: {;mcc_generated_files/i2c2_master.c: 265: 
      +                              if(I2C2_Status.bufferFree)
  7482  03F1  0140               	movlb	0	; select bank0
  7483  03F2  1DBC               	btfss	_I2C2_Status+28,3
  7484  03F3  2BF5               	goto	u601
  7485  03F4  2BF6               	goto	u600
  7486  03F5                     u601:	
  7487  03F5  2BFF               	goto	l333
  7488  03F6                     u600:	
  7489  03F6                     l2025:	
  7490                           
  7491                           ;mcc_generated_files/i2c2_master.c: 266:     {;mcc_generated_files/i2c2_master.c: 267:  
      +                                 I2C2_Status.data_ptr = buffer;
  7492  03F6  0873               	movf	I2C2_SetBuffer@buffer,w
  7493  03F7  00F2               	movwf	??_I2C2_SetBuffer
  7494  03F8  0872               	movf	??_I2C2_SetBuffer,w
  7495  03F9  00B7               	movwf	low ((_I2C2_Status| 0+23))
  7496                           
  7497                           ;mcc_generated_files/i2c2_master.c: 268:         I2C2_Status.data_length = bufferSize;
  7498  03FA  0871               	movf	I2C2_SetBuffer@bufferSize+1,w
  7499  03FB  00B9               	movwf	_I2C2_Status+25
  7500  03FC  0870               	movf	I2C2_SetBuffer@bufferSize,w
  7501  03FD  00B8               	movwf	_I2C2_Status+24
  7502  03FE                     l2027:	
  7503                           
  7504                           ;mcc_generated_files/i2c2_master.c: 269:         I2C2_Status.bufferFree = 0;
  7505  03FE  11BC               	bcf	_I2C2_Status+28,3
  7506  03FF                     l333:	
  7507  03FF  0008               	return
  7508  0400                     __end_of_I2C2_SetBuffer:	
  7509                           
  7510                           	psect	text49
  7511  0330                     __ptext49:	
  7512 ;; *************** function _I2C2_MasterStop *****************
  7513 ;; Defined at:
  7514 ;;		line 593 in file "mcc_generated_files/i2c2_master.c"
  7515 ;; Parameters:    Size  Location     Type
  7516 ;;		None
  7517 ;; Auto vars:     Size  Location     Type
  7518 ;;		None
  7519 ;; Return value:  Size  Location     Type
  7520 ;;                  1    wreg      void 
  7521 ;; Registers used:
  7522 ;;		None
  7523 ;; Tracked objects:
  7524 ;;		On entry : 0/0
  7525 ;;		On exit  : 0/0
  7526 ;;		Unchanged: 0/0
  7527 ;; Data sizes:     COMMON   BANK0   BANK1   BANK2   BANK3   BANK4   BANK5   BANK6   BANK7   BANK8   BANK9  BANK10  BANK1
      +1  BANK12  BANK13  BANK14  BANK15  BANK16  BANK17  BANK18  BANK19  BANK20  BANK21  BANK22  BANK23  BANK24  BANK25
  7528 ;;      Params:         0       0       0       0       0       0       0       0       0       0       0       0       
      +0       0       0       0       0       0       0       0       0       0       0       0       0       0       0
  7529 ;;      Locals:         0       0       0       0       0       0       0       0       0       0       0       0       
      +0       0       0       0       0       0       0       0       0       0       0       0       0       0       0
  7530 ;;      Temps:          0       0       0       0       0       0       0       0       0       0       0       0       
      +0       0       0       0       0       0       0       0       0       0       0       0       0       0       0
  7531 ;;      Totals:         0       0       0       0       0       0       0       0       0       0       0       0       
      +0       0       0       0       0       0       0       0       0       0       0       0       0       0       0
  7532 ;;Total ram usage:        0 bytes
  7533 ;; Hardware stack levels used:    1
  7534 ;; This function calls:
  7535 ;;		Nothing
  7536 ;; This function is called by:
  7537 ;;		_I2C2_DO_SEND_STOP
  7538 ;; This function uses a non-reentrant model
  7539 ;;
  7540                           
  7541                           
  7542                           ;psect for function _I2C2_MasterStop
  7543  0330                     _I2C2_MasterStop:	
  7544  0330                     l2031:	
  7545                           ;incstack = 0
  7546                           ; Regs used in _I2C2_MasterStop: []
  7547                           
  7548                           
  7549                           ;mcc_generated_files/i2c2_master.c: 595:     SSP2CON2bits.PEN = 1;
  7550  0330  0143               	movlb	3	; select bank3
  7551  0331  151B               	bsf	27,2	;volatile
  7552  0332                     l499:	
  7553  0332  0008               	return
  7554  0333                     __end_of_I2C2_MasterStop:	
  7555                           
  7556                           	psect	text50
  7557  032D                     __ptext50:	
  7558 ;; *************** function _I2C2_MasterEnableRestart *****************
  7559 ;; Defined at:
  7560 ;;		line 573 in file "mcc_generated_files/i2c2_master.c"
  7561 ;; Parameters:    Size  Location     Type
  7562 ;;		None
  7563 ;; Auto vars:     Size  Location     Type
  7564 ;;		None
  7565 ;; Return value:  Size  Location     Type
  7566 ;;                  1    wreg      void 
  7567 ;; Registers used:
  7568 ;;		None
  7569 ;; Tracked objects:
  7570 ;;		On entry : 0/0
  7571 ;;		On exit  : 0/0
  7572 ;;		Unchanged: 0/0
  7573 ;; Data sizes:     COMMON   BANK0   BANK1   BANK2   BANK3   BANK4   BANK5   BANK6   BANK7   BANK8   BANK9  BANK10  BANK1
      +1  BANK12  BANK13  BANK14  BANK15  BANK16  BANK17  BANK18  BANK19  BANK20  BANK21  BANK22  BANK23  BANK24  BANK25
  7574 ;;      Params:         0       0       0       0       0       0       0       0       0       0       0       0       
      +0       0       0       0       0       0       0       0       0       0       0       0       0       0       0
  7575 ;;      Locals:         0       0       0       0       0       0       0       0       0       0       0       0       
      +0       0       0       0       0       0       0       0       0       0       0       0       0       0       0
  7576 ;;      Temps:          0       0       0       0       0       0       0       0       0       0       0       0       
      +0       0       0       0       0       0       0       0       0       0       0       0       0       0       0
  7577 ;;      Totals:         0       0       0       0       0       0       0       0       0       0       0       0       
      +0       0       0       0       0       0       0       0       0       0       0       0       0       0       0
  7578 ;;Total ram usage:        0 bytes
  7579 ;; Hardware stack levels used:    1
  7580 ;; This function calls:
  7581 ;;		Nothing
  7582 ;; This function is called by:
  7583 ;;		_I2C2_DO_SEND_RESTART_READ
  7584 ;;		_I2C2_DO_SEND_RESTART_WRITE
  7585 ;;		_I2C2_DO_SEND_RESTART
  7586 ;;		_I2C2_DO_RX_EMPTY
  7587 ;; This function uses a non-reentrant model
  7588 ;;
  7589                           
  7590                           
  7591                           ;psect for function _I2C2_MasterEnableRestart
  7592  032D                     _I2C2_MasterEnableRestart:	
  7593  032D                     l2029:	
  7594                           ;incstack = 0
  7595                           ; Regs used in _I2C2_MasterEnableRestart: []
  7596                           
  7597                           
  7598                           ;mcc_generated_files/i2c2_master.c: 575:     SSP2CON2bits.RSEN = 1;
  7599  032D  0143               	movlb	3	; select bank3
  7600  032E  149B               	bsf	27,1	;volatile
  7601  032F                     l487:	
  7602  032F  0008               	return
  7603  0330                     __end_of_I2C2_MasterEnableRestart:	
  7604                           
  7605                           	psect	text51
  7606  032A                     __ptext51:	
  7607 ;; *************** function _I2C2_MasterStart *****************
  7608 ;; Defined at:
  7609 ;;		line 588 in file "mcc_generated_files/i2c2_master.c"
  7610 ;; Parameters:    Size  Location     Type
  7611 ;;		None
  7612 ;; Auto vars:     Size  Location     Type
  7613 ;;		None
  7614 ;; Return value:  Size  Location     Type
  7615 ;;                  1    wreg      void 
  7616 ;; Registers used:
  7617 ;;		None
  7618 ;; Tracked objects:
  7619 ;;		On entry : 0/0
  7620 ;;		On exit  : 0/0
  7621 ;;		Unchanged: 0/0
  7622 ;; Data sizes:     COMMON   BANK0   BANK1   BANK2   BANK3   BANK4   BANK5   BANK6   BANK7   BANK8   BANK9  BANK10  BANK1
      +1  BANK12  BANK13  BANK14  BANK15  BANK16  BANK17  BANK18  BANK19  BANK20  BANK21  BANK22  BANK23  BANK24  BANK25
  7623 ;;      Params:         0       0       0       0       0       0       0       0       0       0       0       0       
      +0       0       0       0       0       0       0       0       0       0       0       0       0       0       0
  7624 ;;      Locals:         0       0       0       0       0       0       0       0       0       0       0       0       
      +0       0       0       0       0       0       0       0       0       0       0       0       0       0       0
  7625 ;;      Temps:          0       0       0       0       0       0       0       0       0       0       0       0       
      +0       0       0       0       0       0       0       0       0       0       0       0       0       0       0
  7626 ;;      Totals:         0       0       0       0       0       0       0       0       0       0       0       0       
      +0       0       0       0       0       0       0       0       0       0       0       0       0       0       0
  7627 ;;Total ram usage:        0 bytes
  7628 ;; Hardware stack levels used:    1
  7629 ;; This function calls:
  7630 ;;		Nothing
  7631 ;; This function is called by:
  7632 ;;		_I2C2_MasterOperation
  7633 ;; This function uses a non-reentrant model
  7634 ;;
  7635                           
  7636                           
  7637                           ;psect for function _I2C2_MasterStart
  7638  032A                     _I2C2_MasterStart:	
  7639  032A                     l2317:	
  7640                           ;incstack = 0
  7641                           ; Regs used in _I2C2_MasterStart: []
  7642                           
  7643                           
  7644                           ;mcc_generated_files/i2c2_master.c: 590:     SSP2CON2bits.SEN = 1;
  7645  032A  0143               	movlb	3	; select bank3
  7646  032B  141B               	bsf	27,0	;volatile
  7647  032C                     l496:	
  7648  032C  0008               	return
  7649  032D                     __end_of_I2C2_MasterStart:	
  7650                           
  7651                           	psect	text52
  7652  045C                     __ptext52:	
  7653 ;; *************** function _I2C2_Close *****************
  7654 ;; Defined at:
  7655 ;;		line 209 in file "mcc_generated_files/i2c2_master.c"
  7656 ;; Parameters:    Size  Location     Type
  7657 ;;		None
  7658 ;; Auto vars:     Size  Location     Type
  7659 ;;  returnValue     1    1[COMMON] enum E353
  7660 ;; Return value:  Size  Location     Type
  7661 ;;                  1    wreg      enum E353
  7662 ;; Registers used:
  7663 ;;		wreg, status,2, status,0, pclath, cstack
  7664 ;; Tracked objects:
  7665 ;;		On entry : 0/0
  7666 ;;		On exit  : 0/0
  7667 ;;		Unchanged: 0/0
  7668 ;; Data sizes:     COMMON   BANK0   BANK1   BANK2   BANK3   BANK4   BANK5   BANK6   BANK7   BANK8   BANK9  BANK10  BANK1
      +1  BANK12  BANK13  BANK14  BANK15  BANK16  BANK17  BANK18  BANK19  BANK20  BANK21  BANK22  BANK23  BANK24  BANK25
  7669 ;;      Params:         0       0       0       0       0       0       0       0       0       0       0       0       
      +0       0       0       0       0       0       0       0       0       0       0       0       0       0       0
  7670 ;;      Locals:         1       0       0       0       0       0       0       0       0       0       0       0       
      +0       0       0       0       0       0       0       0       0       0       0       0       0       0       0
  7671 ;;      Temps:          1       0       0       0       0       0       0       0       0       0       0       0       
      +0       0       0       0       0       0       0       0       0       0       0       0       0       0       0
  7672 ;;      Totals:         2       0       0       0       0       0       0       0       0       0       0       0       
      +0       0       0       0       0       0       0       0       0       0       0       0       0       0       0
  7673 ;;Total ram usage:        2 bytes
  7674 ;; Hardware stack levels used:    1
  7675 ;; Hardware stack levels required when called:    1
  7676 ;; This function calls:
  7677 ;;		_I2C2_MasterClearIrq
  7678 ;;		_I2C2_MasterClose
  7679 ;;		_I2C2_MasterDisableIrq
  7680 ;; This function is called by:
  7681 ;;		_SendI2CData
  7682 ;;		_I2C2_Read1ByteRegister
  7683 ;;		_I2C2_Read2ByteRegister
  7684 ;;		_I2C2_Write1ByteRegister
  7685 ;;		_I2C2_Write2ByteRegister
  7686 ;;		_I2C2_WriteNBytes
  7687 ;;		_I2C2_ReadNBytes
  7688 ;;		_I2C2_ReadDataBlock
  7689 ;; This function uses a non-reentrant model
  7690 ;;
  7691                           
  7692                           
  7693                           ;psect for function _I2C2_Close
  7694  045C                     _I2C2_Close:	
  7695  045C                     l2359:	
  7696                           ;incstack = 0
  7697                           ; Regs used in _I2C2_Close: [wreg+status,2+status,0+pclath+cstack]
  7698                           
  7699                           
  7700                           ;mcc_generated_files/i2c2_master.c: 211:     i2c2_error_t returnValue = I2C2_BUSY;
  7701  045C  01F1               	clrf	I2C2_Close@returnValue
  7702  045D  0AF1               	incf	I2C2_Close@returnValue,f
  7703                           
  7704                           ;mcc_generated_files/i2c2_master.c: 212:     if(!I2C2_Status.busy)
  7705  045E  0140               	movlb	0	; select bank0
  7706  045F  18BC               	btfsc	_I2C2_Status+28,1
  7707  0460  2C62               	goto	u701
  7708  0461  2C63               	goto	u700
  7709  0462                     u701:	
  7710  0462  2C76               	goto	l2373
  7711  0463                     u700:	
  7712  0463                     l2361:	
  7713                           
  7714                           ;mcc_generated_files/i2c2_master.c: 213:     {;mcc_generated_files/i2c2_master.c: 214:  
      +                                 I2C2_Status.inUse = 0;
  7715  0463  113C               	bcf	_I2C2_Status+28,2
  7716  0464                     l2363:	
  7717                           
  7718                           ;mcc_generated_files/i2c2_master.c: 215:         I2C2_Status.address = 0xff;
  7719  0464  30FF               	movlw	255
  7720  0465  00F0               	movwf	??_I2C2_Close
  7721  0466  0870               	movf	??_I2C2_Close,w
  7722  0467  00B6               	movwf	_I2C2_Status+22
  7723  0468                     l2365:	
  7724                           
  7725                           ;mcc_generated_files/i2c2_master.c: 216:         I2C2_MasterClearIrq();
  7726  0468  3183  2321  3184   	fcall	_I2C2_MasterClearIrq
  7727  046B                     l2367:	
  7728                           
  7729                           ;mcc_generated_files/i2c2_master.c: 217:         I2C2_MasterDisableIrq();
  7730  046B  3183  2327  3184   	fcall	_I2C2_MasterDisableIrq
  7731  046E                     l2369:	
  7732                           
  7733                           ;mcc_generated_files/i2c2_master.c: 218:         I2C2_MasterClose();
  7734  046E  3183  2324  3184   	fcall	_I2C2_MasterClose
  7735  0471                     l2371:	
  7736                           
  7737                           ;mcc_generated_files/i2c2_master.c: 219:         returnValue = I2C2_Status.error;
  7738  0471  0140               	movlb	0	; select bank0
  7739  0472  083B               	movf	_I2C2_Status+27,w
  7740  0473  00F0               	movwf	??_I2C2_Close
  7741  0474  0870               	movf	??_I2C2_Close,w
  7742  0475  00F1               	movwf	I2C2_Close@returnValue
  7743  0476                     l2373:	
  7744                           
  7745                           ;mcc_generated_files/i2c2_master.c: 221:     return returnValue;
  7746  0476  0871               	movf	I2C2_Close@returnValue,w
  7747  0477                     l314:	
  7748  0477  0008               	return
  7749  0478                     __end_of_I2C2_Close:	
  7750                           
  7751                           	psect	text53
  7752  0327                     __ptext53:	
  7753 ;; *************** function _I2C2_MasterDisableIrq *****************
  7754 ;; Defined at:
  7755 ;;		line 635 in file "mcc_generated_files/i2c2_master.c"
  7756 ;; Parameters:    Size  Location     Type
  7757 ;;		None
  7758 ;; Auto vars:     Size  Location     Type
  7759 ;;		None
  7760 ;; Return value:  Size  Location     Type
  7761 ;;                  1    wreg      void 
  7762 ;; Registers used:
  7763 ;;		None
  7764 ;; Tracked objects:
  7765 ;;		On entry : 0/0
  7766 ;;		On exit  : 0/0
  7767 ;;		Unchanged: 0/0
  7768 ;; Data sizes:     COMMON   BANK0   BANK1   BANK2   BANK3   BANK4   BANK5   BANK6   BANK7   BANK8   BANK9  BANK10  BANK1
      +1  BANK12  BANK13  BANK14  BANK15  BANK16  BANK17  BANK18  BANK19  BANK20  BANK21  BANK22  BANK23  BANK24  BANK25
  7769 ;;      Params:         0       0       0       0       0       0       0       0       0       0       0       0       
      +0       0       0       0       0       0       0       0       0       0       0       0       0       0       0
  7770 ;;      Locals:         0       0       0       0       0       0       0       0       0       0       0       0       
      +0       0       0       0       0       0       0       0       0       0       0       0       0       0       0
  7771 ;;      Temps:          0       0       0       0       0       0       0       0       0       0       0       0       
      +0       0       0       0       0       0       0       0       0       0       0       0       0       0       0
  7772 ;;      Totals:         0       0       0       0       0       0       0       0       0       0       0       0       
      +0       0       0       0       0       0       0       0       0       0       0       0       0       0       0
  7773 ;;Total ram usage:        0 bytes
  7774 ;; Hardware stack levels used:    1
  7775 ;; This function calls:
  7776 ;;		Nothing
  7777 ;; This function is called by:
  7778 ;;		_I2C2_Close
  7779 ;;		_I2C2_SetTimeOut
  7780 ;; This function uses a non-reentrant model
  7781 ;;
  7782                           
  7783                           
  7784                           ;psect for function _I2C2_MasterDisableIrq
  7785  0327                     _I2C2_MasterDisableIrq:	
  7786  0327                     l2313:	
  7787                           ;incstack = 0
  7788                           ; Regs used in _I2C2_MasterDisableIrq: []
  7789                           
  7790                           
  7791                           ;mcc_generated_files/i2c2_master.c: 637:     PIE3bits.SSP2IE = 0;
  7792  0327  014E               	movlb	14	; select bank14
  7793  0328  1119               	bcf	25,2	;volatile
  7794  0329                     l523:	
  7795  0329  0008               	return
  7796  032A                     __end_of_I2C2_MasterDisableIrq:	
  7797                           
  7798                           	psect	text54
  7799  0324                     __ptext54:	
  7800 ;; *************** function _I2C2_MasterClose *****************
  7801 ;; Defined at:
  7802 ;;		line 557 in file "mcc_generated_files/i2c2_master.c"
  7803 ;; Parameters:    Size  Location     Type
  7804 ;;		None
  7805 ;; Auto vars:     Size  Location     Type
  7806 ;;		None
  7807 ;; Return value:  Size  Location     Type
  7808 ;;                  1    wreg      void 
  7809 ;; Registers used:
  7810 ;;		None
  7811 ;; Tracked objects:
  7812 ;;		On entry : 0/0
  7813 ;;		On exit  : 0/0
  7814 ;;		Unchanged: 0/0
  7815 ;; Data sizes:     COMMON   BANK0   BANK1   BANK2   BANK3   BANK4   BANK5   BANK6   BANK7   BANK8   BANK9  BANK10  BANK1
      +1  BANK12  BANK13  BANK14  BANK15  BANK16  BANK17  BANK18  BANK19  BANK20  BANK21  BANK22  BANK23  BANK24  BANK25
  7816 ;;      Params:         0       0       0       0       0       0       0       0       0       0       0       0       
      +0       0       0       0       0       0       0       0       0       0       0       0       0       0       0
  7817 ;;      Locals:         0       0       0       0       0       0       0       0       0       0       0       0       
      +0       0       0       0       0       0       0       0       0       0       0       0       0       0       0
  7818 ;;      Temps:          0       0       0       0       0       0       0       0       0       0       0       0       
      +0       0       0       0       0       0       0       0       0       0       0       0       0       0       0
  7819 ;;      Totals:         0       0       0       0       0       0       0       0       0       0       0       0       
      +0       0       0       0       0       0       0       0       0       0       0       0       0       0       0
  7820 ;;Total ram usage:        0 bytes
  7821 ;; Hardware stack levels used:    1
  7822 ;; This function calls:
  7823 ;;		Nothing
  7824 ;; This function is called by:
  7825 ;;		_I2C2_Close
  7826 ;; This function uses a non-reentrant model
  7827 ;;
  7828                           
  7829                           
  7830                           ;psect for function _I2C2_MasterClose
  7831  0324                     _I2C2_MasterClose:	
  7832  0324                     l2315:	
  7833                           ;incstack = 0
  7834                           ; Regs used in _I2C2_MasterClose: []
  7835                           
  7836                           
  7837                           ;mcc_generated_files/i2c2_master.c: 560:     SSP2CON1bits.SSPEN = 0;
  7838  0324  0143               	movlb	3	; select bank3
  7839  0325  129A               	bcf	26,5	;volatile
  7840  0326                     l478:	
  7841  0326  0008               	return
  7842  0327                     __end_of_I2C2_MasterClose:	
  7843                           
  7844                           	psect	text55
  7845  0321                     __ptext55:	
  7846 ;; *************** function _I2C2_MasterClearIrq *****************
  7847 ;; Defined at:
  7848 ;;		line 640 in file "mcc_generated_files/i2c2_master.c"
  7849 ;; Parameters:    Size  Location     Type
  7850 ;;		None
  7851 ;; Auto vars:     Size  Location     Type
  7852 ;;		None
  7853 ;; Return value:  Size  Location     Type
  7854 ;;                  1    wreg      void 
  7855 ;; Registers used:
  7856 ;;		None
  7857 ;; Tracked objects:
  7858 ;;		On entry : 0/0
  7859 ;;		On exit  : 0/0
  7860 ;;		Unchanged: 0/0
  7861 ;; Data sizes:     COMMON   BANK0   BANK1   BANK2   BANK3   BANK4   BANK5   BANK6   BANK7   BANK8   BANK9  BANK10  BANK1
      +1  BANK12  BANK13  BANK14  BANK15  BANK16  BANK17  BANK18  BANK19  BANK20  BANK21  BANK22  BANK23  BANK24  BANK25
  7862 ;;      Params:         0       0       0       0       0       0       0       0       0       0       0       0       
      +0       0       0       0       0       0       0       0       0       0       0       0       0       0       0
  7863 ;;      Locals:         0       0       0       0       0       0       0       0       0       0       0       0       
      +0       0       0       0       0       0       0       0       0       0       0       0       0       0       0
  7864 ;;      Temps:          0       0       0       0       0       0       0       0       0       0       0       0       
      +0       0       0       0       0       0       0       0       0       0       0       0       0       0       0
  7865 ;;      Totals:         0       0       0       0       0       0       0       0       0       0       0       0       
      +0       0       0       0       0       0       0       0       0       0       0       0       0       0       0
  7866 ;;Total ram usage:        0 bytes
  7867 ;; Hardware stack levels used:    1
  7868 ;; This function calls:
  7869 ;;		Nothing
  7870 ;; This function is called by:
  7871 ;;		_I2C2_Open
  7872 ;;		_I2C2_Close
  7873 ;;		_I2C2_MasterFsm
  7874 ;; This function uses a non-reentrant model
  7875 ;;
  7876                           
  7877                           
  7878                           ;psect for function _I2C2_MasterClearIrq
  7879  0321                     _I2C2_MasterClearIrq:	
  7880  0321                     l2133:	
  7881                           ;incstack = 0
  7882                           ; Regs used in _I2C2_MasterClearIrq: []
  7883                           
  7884                           
  7885                           ;mcc_generated_files/i2c2_master.c: 642:     PIR3bits.SSP2IF = 0;
  7886  0321  014E               	movlb	14	; select bank14
  7887  0322  110F               	bcf	15,2	;volatile
  7888  0323                     l526:	
  7889  0323  0008               	return
  7890  0324                     __end_of_I2C2_MasterClearIrq:	
  7891  007E                     btemp	set	126	;btemp
  7892  007E                     wtemp0	set	126


Data Sizes:
    Strings     0
    Constant    32
    Data        0
    BSS         30
    Persistent  32
    Stack       0

Auto Spaces:
    Space          Size  Autos    Used
    COMMON           14     14      14
    BANK0            80     26      56
    BANK1            80      0       0
    BANK2            80      0       0
    BANK3            80      0       0
    BANK4            80      0       0
    BANK5            80      0       0
    BANK6            80      0       0
    BANK7            80      0       0
    BANK8            80      0       0
    BANK9            80      0       0
    BANK10           80      0       0
    BANK11           80      0       0
    BANK12           80      0       0
    BANK13           80      0       0
    BANK14           80      0       0
    BANK15           80      0       0
    BANK16           80      0       0
    BANK17           80      0       0
    BANK18           80      0       0
    BANK19           80      0       0
    BANK20           80      0       0
    BANK21           80      0       0
    BANK22           80      0       0
    BANK23           80      0       0
    BANK24           80      0       0
    BANK25           32      0       0

Pointer List with Targets:

    I2C2_Read1ByteRegister@returnValue.data	PTR unsigned char  size(1) Largest target is 0

    I2C2_Read2ByteRegister@returnValue.data	PTR unsigned char  size(1) Largest target is 0

    I2C2_Write1ByteRegister@data.data	PTR unsigned char  size(1) Largest target is 0

    I2C2_Write2ByteRegister@data.data	PTR unsigned char  size(1) Largest target is 0

    I2C2_DO_TX$1710$0	PTR void  size(1) Largest target is 4
		 -> I2C2_ReadDataBlock@bufferBlock(COMMON[3]), I2C2_Write2ByteRegister@data(COMMON[2]), I2C2_Write1ByteRegister@data(COMMON[1]), I2C2_Read2ByteRegister@returnValue(COMMON[2]), 
		 -> NULL(NULL[0]), I2C2_Read1ByteRegister@returnValue(COMMON[1]), 

    I2C2_DO_TX$1715	PTR void  size(1) Largest target is 4
		 -> I2C2_ReadDataBlock@bufferBlock(COMMON[3]), I2C2_Write2ByteRegister@data(COMMON[2]), I2C2_Write1ByteRegister@data(COMMON[1]), I2C2_Read2ByteRegister@returnValue(COMMON[2]), 
		 -> NULL(NULL[0]), I2C2_Read1ByteRegister@returnValue(COMMON[1]), 

    I2C2_DO_TX$1710	PTR FTN(PTR void ,)enum E358 size(2) Largest target is 1
		 -> I2C2_CallbackReturnReset(), I2C2_CallbackReturnStop(), Absolute function(), rdBlkRegCompleteHandler(), 
		 -> wr2RegCompleteHandler(), wr1RegCompleteHandler(), rd2RegCompleteHandler(), rd1RegCompleteHandler(), 

    I2C2_MasterFsm$1709	const PTR FTN()enum E11284 size(2) Largest target is 1
		 -> I2C2_DO_ADDRESS_NACK(), I2C2_DO_RESET(), I2C2_DO_RX_NACK_RESTART(), I2C2_DO_RX_NACK_STOP(), 
		 -> I2C2_DO_RX_ACK(), I2C2_DO_SEND_STOP(), I2C2_DO_SEND_RESTART(), I2C2_DO_SEND_RESTART_WRITE(), 
		 -> I2C2_DO_SEND_RESTART_READ(), I2C2_DO_TX_EMPTY(), I2C2_DO_RCEN(), I2C2_DO_RX(), 
		 -> I2C2_DO_TX(), I2C2_DO_SEND_ADR_WRITE(), I2C2_DO_SEND_ADR_READ(), I2C2_DO_IDLE(), 

    I2C2_CallbackReturnStop@funPtr	PTR void  size(1) Largest target is 4
		 -> I2C2_ReadDataBlock@bufferBlock(COMMON[3]), I2C2_Write2ByteRegister@data(COMMON[2]), I2C2_Write1ByteRegister@data(COMMON[1]), I2C2_Read2ByteRegister@returnValue(COMMON[2]), 
		 -> NULL(NULL[0]), I2C2_Read1ByteRegister@returnValue(COMMON[1]), 

    I2C2_CallbackReturnReset@funPtr	PTR void  size(1) Largest target is 4
		 -> I2C2_ReadDataBlock@bufferBlock(COMMON[3]), I2C2_Write2ByteRegister@data(COMMON[2]), I2C2_Write1ByteRegister@data(COMMON[1]), I2C2_Read2ByteRegister@returnValue(COMMON[2]), 
		 -> NULL(NULL[0]), I2C2_Read1ByteRegister@returnValue(COMMON[1]), 

    cb$0	PTR void  size(1) Largest target is 4
		 -> I2C2_ReadDataBlock@bufferBlock(COMMON[3]), I2C2_Write2ByteRegister@data(COMMON[2]), I2C2_Write1ByteRegister@data(COMMON[1]), I2C2_Read2ByteRegister@returnValue(COMMON[2]), 
		 -> NULL(NULL[0]), I2C2_Read1ByteRegister@returnValue(COMMON[1]), 

    Absolute function$0	PTR void  size(1) Largest target is 4
		 -> I2C2_ReadDataBlock@bufferBlock(COMMON[3]), I2C2_Write2ByteRegister@data(COMMON[2]), I2C2_Write1ByteRegister@data(COMMON[1]), I2C2_Read2ByteRegister@returnValue(COMMON[2]), 
		 -> NULL(NULL[0]), I2C2_Read1ByteRegister@returnValue(COMMON[1]), 

    cb$0	PTR void  size(1) Largest target is 4
		 -> I2C2_ReadDataBlock@bufferBlock(COMMON[3]), I2C2_Write2ByteRegister@data(COMMON[2]), I2C2_Write1ByteRegister@data(COMMON[1]), I2C2_Read2ByteRegister@returnValue(COMMON[2]), 
		 -> NULL(NULL[0]), I2C2_Read1ByteRegister@returnValue(COMMON[1]), 

    S305$0$0	PTR void  size(1) Largest target is 4
		 -> I2C2_ReadDataBlock@bufferBlock(COMMON[3]), I2C2_Write2ByteRegister@data(COMMON[2]), I2C2_Write1ByteRegister@data(COMMON[1]), I2C2_Read2ByteRegister@returnValue(COMMON[2]), 
		 -> NULL(NULL[0]), I2C2_Read1ByteRegister@returnValue(COMMON[1]), 

    SendI2CData@_data	PTR unsigned char  size(1) Largest target is 8
		 -> DispWriteValue@packets(BANK0[8]), 

    I2C2_SetCallback@ptr	PTR void  size(1) Largest target is 4
		 -> I2C2_ReadDataBlock@bufferBlock(COMMON[3]), I2C2_Write2ByteRegister@data(COMMON[2]), I2C2_Write1ByteRegister@data(COMMON[1]), I2C2_Read2ByteRegister@returnValue(COMMON[2]), 
		 -> NULL(NULL[0]), I2C2_Read1ByteRegister@returnValue(COMMON[1]), 

    I2C2_SetCallback@cb	PTR FTN(PTR void ,)enum E358 size(2) Largest target is 1
		 -> Absolute function(), rdBlkRegCompleteHandler(), wr2RegCompleteHandler(), wr1RegCompleteHandler(), 
		 -> rd2RegCompleteHandler(), rd1RegCompleteHandler(), 

    I2C2_SetDataCompleteCallback@ptr	PTR void  size(1) Largest target is 4
		 -> I2C2_ReadDataBlock@bufferBlock(COMMON[3]), I2C2_Write2ByteRegister@data(COMMON[2]), I2C2_Write1ByteRegister@data(COMMON[1]), I2C2_Read2ByteRegister@returnValue(COMMON[2]), 
		 -> NULL(NULL[0]), I2C2_Read1ByteRegister@returnValue(COMMON[1]), 

    I2C2_SetDataCompleteCallback@cb	PTR FTN(PTR void ,)enum E358 size(2) Largest target is 1
		 -> Absolute function(), rdBlkRegCompleteHandler(), wr2RegCompleteHandler(), wr1RegCompleteHandler(), 
		 -> rd2RegCompleteHandler(), rd1RegCompleteHandler(), 

    I2C2_SetBuffer@buffer	PTR void  size(1) Largest target is 8
		 -> DispWriteValue@packets(BANK0[8]), I2C2_ReadDataBlock@reg(COMMON[1]), I2C2_ReadDataBlock@bufferBlock(COMMON[3]), I2C2_Write2ByteRegister@reg(COMMON[1]), 
		 -> I2C2_Write2ByteRegister@data(COMMON[2]), I2C2_Write1ByteRegister@reg(COMMON[1]), I2C2_Write1ByteRegister@data(COMMON[1]), I2C2_Read2ByteRegister@reg(COMMON[1]), 
		 -> I2C2_Read2ByteRegister@returnValue(COMMON[2]), NULL(NULL[0]), I2C2_Read1ByteRegister@reg(COMMON[1]), I2C2_Read1ByteRegister@returnValue(COMMON[1]), 

    S305$data_ptr	PTR unsigned char  size(1) Largest target is 8
		 -> DispWriteValue@packets(BANK0[8]), I2C2_ReadDataBlock@reg(COMMON[1]), I2C2_ReadDataBlock@bufferBlock(COMMON[3]), I2C2_Write2ByteRegister@reg(COMMON[1]), 
		 -> I2C2_Write2ByteRegister@data(COMMON[2]), I2C2_Write1ByteRegister@reg(COMMON[1]), I2C2_Write1ByteRegister@data(COMMON[1]), I2C2_Read2ByteRegister@reg(COMMON[1]), 
		 -> I2C2_Read2ByteRegister@returnValue(COMMON[2]), NULL(NULL[0]), I2C2_Read1ByteRegister@reg(COMMON[1]), I2C2_Read1ByteRegister@returnValue(COMMON[1]), 

    I2C2_Status.data_ptr	PTR unsigned char  size(1) Largest target is 8
		 -> DispWriteValue@packets(BANK0[8]), I2C2_ReadDataBlock@reg(COMMON[1]), I2C2_ReadDataBlock@bufferBlock(COMMON[3]), I2C2_Write2ByteRegister@reg(COMMON[1]), 
		 -> I2C2_Write2ByteRegister@data(COMMON[2]), I2C2_Write1ByteRegister@reg(COMMON[1]), I2C2_Write1ByteRegister@data(COMMON[1]), I2C2_Read2ByteRegister@reg(COMMON[1]), 
		 -> I2C2_Read2ByteRegister@returnValue(COMMON[2]), NULL(NULL[0]), I2C2_Read1ByteRegister@reg(COMMON[1]), I2C2_Read1ByteRegister@returnValue(COMMON[1]), 

    S305$callbackPayload	PTR void [6] size(1) Largest target is 4
		 -> I2C2_ReadDataBlock@bufferBlock(COMMON[3]), I2C2_Write2ByteRegister@data(COMMON[2]), I2C2_Write1ByteRegister@data(COMMON[1]), I2C2_Read2ByteRegister@returnValue(COMMON[2]), 
		 -> NULL(NULL[0]), I2C2_Read1ByteRegister@returnValue(COMMON[1]), 

    I2C2_Status.callbackPayload	PTR void [6] size(1) Largest target is 4
		 -> I2C2_ReadDataBlock@bufferBlock(COMMON[3]), I2C2_Write2ByteRegister@data(COMMON[2]), I2C2_Write1ByteRegister@data(COMMON[1]), I2C2_Read2ByteRegister@returnValue(COMMON[2]), 
		 -> NULL(NULL[0]), I2C2_Read1ByteRegister@returnValue(COMMON[1]), 

    S305$callbackTable	PTR FTN(PTR void ,)enum E358[6] size(2) Largest target is 1
		 -> I2C2_CallbackReturnReset(), I2C2_CallbackReturnStop(), Absolute function(), rdBlkRegCompleteHandler(), 
		 -> wr2RegCompleteHandler(), wr1RegCompleteHandler(), rd2RegCompleteHandler(), rd1RegCompleteHandler(), 

    I2C2_Status.callbackTable	PTR FTN(PTR void ,)enum E358[6] size(2) Largest target is 1
		 -> I2C2_CallbackReturnReset(), I2C2_CallbackReturnStop(), Absolute function(), rdBlkRegCompleteHandler(), 
		 -> wr2RegCompleteHandler(), wr1RegCompleteHandler(), rd2RegCompleteHandler(), rd1RegCompleteHandler(), 

    fsmStateTable	const PTR FTN()enum E11284[16] size(2) Largest target is 1
		 -> I2C2_DO_ADDRESS_NACK(), I2C2_DO_RESET(), I2C2_DO_RX_NACK_RESTART(), I2C2_DO_RX_NACK_STOP(), 
		 -> I2C2_DO_RX_ACK(), I2C2_DO_SEND_STOP(), I2C2_DO_SEND_RESTART(), I2C2_DO_SEND_RESTART_WRITE(), 
		 -> I2C2_DO_SEND_RESTART_READ(), I2C2_DO_TX_EMPTY(), I2C2_DO_RCEN(), I2C2_DO_RX(), 
		 -> I2C2_DO_TX(), I2C2_DO_SEND_ADR_WRITE(), I2C2_DO_SEND_ADR_READ(), I2C2_DO_IDLE(), 

    rdBlkRegCompleteHandler@ptr.data	PTR unsigned char  size(1) Largest target is 0

    rdBlkRegCompleteHandler@ptr	PTR void  size(1) Largest target is 4
		 -> I2C2_ReadDataBlock@bufferBlock(COMMON[3]), I2C2_Write2ByteRegister@data(COMMON[2]), I2C2_Write1ByteRegister@data(COMMON[1]), I2C2_Read2ByteRegister@returnValue(COMMON[2]), 
		 -> NULL(NULL[0]), I2C2_Read1ByteRegister@returnValue(COMMON[1]), 

    wr2RegCompleteHandler@ptr	PTR void  size(1) Largest target is 4
		 -> I2C2_ReadDataBlock@bufferBlock(COMMON[3]), I2C2_Write2ByteRegister@data(COMMON[2]), I2C2_Write1ByteRegister@data(COMMON[1]), I2C2_Read2ByteRegister@returnValue(COMMON[2]), 
		 -> NULL(NULL[0]), I2C2_Read1ByteRegister@returnValue(COMMON[1]), 

    wr1RegCompleteHandler@ptr	PTR void  size(1) Largest target is 4
		 -> I2C2_ReadDataBlock@bufferBlock(COMMON[3]), I2C2_Write2ByteRegister@data(COMMON[2]), I2C2_Write1ByteRegister@data(COMMON[1]), I2C2_Read2ByteRegister@returnValue(COMMON[2]), 
		 -> NULL(NULL[0]), I2C2_Read1ByteRegister@returnValue(COMMON[1]), 

    rd2RegCompleteHandler@ptr	PTR void  size(1) Largest target is 4
		 -> I2C2_ReadDataBlock@bufferBlock(COMMON[3]), I2C2_Write2ByteRegister@data(COMMON[2]), I2C2_Write1ByteRegister@data(COMMON[1]), I2C2_Read2ByteRegister@returnValue(COMMON[2]), 
		 -> NULL(NULL[0]), I2C2_Read1ByteRegister@returnValue(COMMON[1]), 

    rd1RegCompleteHandler@ptr	PTR void  size(1) Largest target is 4
		 -> I2C2_ReadDataBlock@bufferBlock(COMMON[3]), I2C2_Write2ByteRegister@data(COMMON[2]), I2C2_Write1ByteRegister@data(COMMON[1]), I2C2_Read2ByteRegister@returnValue(COMMON[2]), 
		 -> NULL(NULL[0]), I2C2_Read1ByteRegister@returnValue(COMMON[1]), 

    S94$data	PTR unsigned char  size(1) Largest target is 0

    bufferBlock.data	PTR unsigned char  size(1) Largest target is 0


Critical Paths under _main in COMMON

    _DispWriteValue->___awmod
    ___awmod->___awdiv
    _SendI2CData->_I2C2_MasterOperation
    _I2C2_MasterFsm->_I2C2_DO_ADDRESS_NACK
    _I2C2_MasterFsm->_I2C2_DO_RX
    _I2C2_MasterFsm->_I2C2_DO_TX
    _I2C2_MasterFsm->_I2C2_DO_TX_EMPTY
    _I2C2_DO_TX_EMPTY->_I2C2_CallbackReturnReset
    _I2C2_DO_TX_EMPTY->_I2C2_CallbackReturnStop
    _I2C2_DO_TX_EMPTY->_rd1RegCompleteHandler
    _I2C2_DO_TX_EMPTY->_rd2RegCompleteHandler
    _I2C2_DO_TX_EMPTY->_rdBlkRegCompleteHandler
    _I2C2_DO_TX_EMPTY->_wr1RegCompleteHandler
    _I2C2_DO_TX_EMPTY->_wr2RegCompleteHandler
    _I2C2_DO_TX->_I2C2_CallbackReturnReset
    _I2C2_DO_TX->_I2C2_CallbackReturnStop
    _I2C2_DO_TX->_rd1RegCompleteHandler
    _I2C2_DO_TX->_rd2RegCompleteHandler
    _I2C2_DO_TX->_rdBlkRegCompleteHandler
    _I2C2_DO_TX->_wr1RegCompleteHandler
    _I2C2_DO_TX->_wr2RegCompleteHandler
    _I2C2_DO_SEND_ADR_WRITE->_I2C2_MasterSendTxData
    _I2C2_DO_RX->_I2C2_CallbackReturnReset
    _I2C2_DO_RX->_I2C2_CallbackReturnStop
    _I2C2_DO_RX->_rd1RegCompleteHandler
    _I2C2_DO_RX->_rd2RegCompleteHandler
    _I2C2_DO_RX->_rdBlkRegCompleteHandler
    _I2C2_DO_RX->_wr1RegCompleteHandler
    _I2C2_DO_RX->_wr2RegCompleteHandler
    _I2C2_DO_ADDRESS_NACK->_I2C2_CallbackReturnReset
    _I2C2_DO_ADDRESS_NACK->_I2C2_CallbackReturnStop
    _I2C2_DO_ADDRESS_NACK->_rd1RegCompleteHandler
    _I2C2_DO_ADDRESS_NACK->_rd2RegCompleteHandler
    _I2C2_DO_ADDRESS_NACK->_rdBlkRegCompleteHandler
    _I2C2_DO_ADDRESS_NACK->_wr1RegCompleteHandler
    _I2C2_DO_ADDRESS_NACK->_wr2RegCompleteHandler
    _wr2RegCompleteHandler->_I2C2_SetDataCompleteCallback
    _wr1RegCompleteHandler->_I2C2_SetDataCompleteCallback
    _rdBlkRegCompleteHandler->_I2C2_SetDataCompleteCallback
    _rd2RegCompleteHandler->_I2C2_SetDataCompleteCallback
    _rd1RegCompleteHandler->_I2C2_SetDataCompleteCallback
    _I2C2_SetDataCompleteCallback->_I2C2_SetCallback

Critical Paths under _main in BANK0

    _main->_DispWriteValue
    _DispWriteValue->_SendI2CData
    _SendI2CData->_I2C2_MasterOperation
    _I2C2_Poller->_I2C2_MasterFsm

Critical Paths under _main in BANK1

    None.

Critical Paths under _main in BANK2

    None.

Critical Paths under _main in BANK3

    None.

Critical Paths under _main in BANK4

    None.

Critical Paths under _main in BANK5

    None.

Critical Paths under _main in BANK6

    None.

Critical Paths under _main in BANK7

    None.

Critical Paths under _main in BANK8

    None.

Critical Paths under _main in BANK9

    None.

Critical Paths under _main in BANK10

    None.

Critical Paths under _main in BANK11

    None.

Critical Paths under _main in BANK12

    None.

Critical Paths under _main in BANK13

    None.

Critical Paths under _main in BANK14

    None.

Critical Paths under _main in BANK15

    None.

Critical Paths under _main in BANK16

    None.

Critical Paths under _main in BANK17

    None.

Critical Paths under _main in BANK18

    None.

Critical Paths under _main in BANK19

    None.

Critical Paths under _main in BANK20

    None.

Critical Paths under _main in BANK21

    None.

Critical Paths under _main in BANK22

    None.

Critical Paths under _main in BANK23

    None.

Critical Paths under _main in BANK24

    None.

Critical Paths under _main in BANK25

    None.

Call Graph Tables:

 ---------------------------------------------------------------------------------
 (Depth) Function   	        Calls       Base Space   Used Autos Params    Refs
 ---------------------------------------------------------------------------------
 (0) _main                                                 2     2      0   84241
                                             24 BANK0      2     2      0
                     _DispWriteValue
                  _SYSTEM_Initialize
 ---------------------------------------------------------------------------------
 (1) _SYSTEM_Initialize                                    0     0      0       0
                    _I2C2_Initialize
              _OSCILLATOR_Initialize
             _PIN_MANAGER_Initialize
                     _PMD_Initialize
 ---------------------------------------------------------------------------------
 (2) _PMD_Initialize                                       0     0      0       0
 ---------------------------------------------------------------------------------
 (2) _PIN_MANAGER_Initialize                               0     0      0       0
 ---------------------------------------------------------------------------------
 (2) _OSCILLATOR_Initialize                                0     0      0       0
 ---------------------------------------------------------------------------------
 (2) _I2C2_Initialize                                      0     0      0       0
 ---------------------------------------------------------------------------------
 (1) _DispWriteValue                                      13    11      2   84241
                                             11 BANK0     13    11      2
                        _SendI2CData
                            ___awdiv
                            ___awmod
 ---------------------------------------------------------------------------------
 (2) ___awmod                                              7     3      4     752
                                              9 COMMON     5     1      4
                                              0 BANK0      2     2      0
                            ___awdiv (ARG)
 ---------------------------------------------------------------------------------
 (2) ___awdiv                                              9     5      4     756
                                              0 COMMON     9     5      4
 ---------------------------------------------------------------------------------
 (2) _SendI2CData                                          6     4      2   82277
                                              5 BANK0      6     4      2
                         _I2C2_Close
               _I2C2_MasterOperation
                          _I2C2_Open
                     _I2C2_SetBuffer
 ---------------------------------------------------------------------------------
 (3) _I2C2_Open                                            3     3      0      46
                                              0 COMMON     3     3      0
                _I2C2_MasterClearIrq
                    _I2C2_MasterOpen
 ---------------------------------------------------------------------------------
 (4) _I2C2_MasterOpen                                      0     0      0       0
 ---------------------------------------------------------------------------------
 (3) _I2C2_MasterOperation                                 3     3      0   80480
                                             13 COMMON     1     1      0
                                              3 BANK0      2     2      0
                   _I2C2_MasterStart
                        _I2C2_Poller
 ---------------------------------------------------------------------------------
 (4) _I2C2_Poller                                          0     0      0   80434
                     _I2C2_MasterFsm
            _I2C2_MasterWaitForEvent
 ---------------------------------------------------------------------------------
 (5) _I2C2_MasterWaitForEvent                              0     0      0       0
 ---------------------------------------------------------------------------------
 (5) _I2C2_MasterFsm                                       3     3      0   80434
                                              0 BANK0      3     3      0
               _I2C2_DO_ADDRESS_NACK *
                       _I2C2_DO_IDLE *
                       _I2C2_DO_RCEN *
                      _I2C2_DO_RESET *
                         _I2C2_DO_RX *
                     _I2C2_DO_RX_ACK *
            _I2C2_DO_RX_NACK_RESTART *
               _I2C2_DO_RX_NACK_STOP *
              _I2C2_DO_SEND_ADR_READ *
             _I2C2_DO_SEND_ADR_WRITE *
               _I2C2_DO_SEND_RESTART *
          _I2C2_DO_SEND_RESTART_READ *
         _I2C2_DO_SEND_RESTART_WRITE *
                  _I2C2_DO_SEND_STOP *
                         _I2C2_DO_TX *
                   _I2C2_DO_TX_EMPTY *
                _I2C2_MasterClearIrq
                  _I2C2_MasterIsNack
 ---------------------------------------------------------------------------------
 (6) _I2C2_DO_TX_EMPTY                                     3     3      0   20092
                                             10 COMMON     3     3      0
                   Absolute function *
           _I2C2_CallbackReturnReset *
            _I2C2_CallbackReturnStop *
               _I2C2_DO_SEND_RESTART
                  _I2C2_DO_SEND_STOP
                  _I2C2_MasterSetIrq
              _rd1RegCompleteHandler *
              _rd2RegCompleteHandler *
            _rdBlkRegCompleteHandler *
              _wr1RegCompleteHandler *
              _wr2RegCompleteHandler *
 ---------------------------------------------------------------------------------
 (7) _I2C2_MasterSetIrq                                    0     0      0       0
 ---------------------------------------------------------------------------------
 (6) _I2C2_DO_TX                                           3     3      0   20114
                                             10 COMMON     3     3      0
                   Absolute function *
           _I2C2_CallbackReturnReset *
            _I2C2_CallbackReturnStop *
          _I2C2_DO_SEND_RESTART_READ
         _I2C2_DO_SEND_RESTART_WRITE
                  _I2C2_DO_SEND_STOP
                  _I2C2_MasterIsNack
              _I2C2_MasterSendTxData
              _rd1RegCompleteHandler *
              _rd2RegCompleteHandler *
            _rdBlkRegCompleteHandler *
              _wr1RegCompleteHandler *
              _wr2RegCompleteHandler *
 ---------------------------------------------------------------------------------
 (6) _I2C2_MasterIsNack                                    0     0      0       0
 ---------------------------------------------------------------------------------
 (7) _I2C2_DO_SEND_RESTART_WRITE                           0     0      0       0
           _I2C2_MasterEnableRestart
 ---------------------------------------------------------------------------------
 (7) _I2C2_DO_SEND_RESTART_READ                            0     0      0       0
           _I2C2_MasterEnableRestart
 ---------------------------------------------------------------------------------
 (6) _I2C2_DO_SEND_ADR_WRITE                               0     0      0      22
              _I2C2_MasterSendTxData
 ---------------------------------------------------------------------------------
 (6) _I2C2_DO_SEND_ADR_READ                                0     0      0      22
              _I2C2_MasterSendTxData
 ---------------------------------------------------------------------------------
 (7) _I2C2_MasterSendTxData                                1     1      0      22
                                              0 COMMON     1     1      0
 ---------------------------------------------------------------------------------
 (6) _I2C2_DO_RX_ACK                                       0     0      0       0
                 _I2C2_MasterSendAck
 ---------------------------------------------------------------------------------
 (6) _I2C2_DO_RX                                           3     3      0   20092
                                             10 COMMON     3     3      0
                   Absolute function *
           _I2C2_CallbackReturnReset *
            _I2C2_CallbackReturnStop *
            _I2C2_DO_RX_NACK_RESTART
               _I2C2_DO_RX_NACK_STOP
               _I2C2_MasterGetRxData
                 _I2C2_MasterSendAck
              _rd1RegCompleteHandler *
              _rd2RegCompleteHandler *
            _rdBlkRegCompleteHandler *
              _wr1RegCompleteHandler *
              _wr2RegCompleteHandler *
 ---------------------------------------------------------------------------------
 (7) _I2C2_MasterSendAck                                   0     0      0       0
 ---------------------------------------------------------------------------------
 (7) _I2C2_MasterGetRxData                                 0     0      0       0
 ---------------------------------------------------------------------------------
 (6) _I2C2_DO_RX_NACK_STOP                                 0     0      0       0
                _I2C2_MasterSendNack
 ---------------------------------------------------------------------------------
 (6) _I2C2_DO_RX_NACK_RESTART                              0     0      0       0
                _I2C2_MasterSendNack
 ---------------------------------------------------------------------------------
 (7) _I2C2_MasterSendNack                                  0     0      0       0
 ---------------------------------------------------------------------------------
 (6) _I2C2_DO_RESET                                        0     0      0       0
 ---------------------------------------------------------------------------------
 (6) _I2C2_DO_RCEN                                         0     0      0       0
                 _I2C2_MasterStartRx
 ---------------------------------------------------------------------------------
 (7) _I2C2_MasterStartRx                                   0     0      0       0
 ---------------------------------------------------------------------------------
 (6) _I2C2_DO_IDLE                                         0     0      0       0
 ---------------------------------------------------------------------------------
 (6) _I2C2_DO_ADDRESS_NACK                                 3     3      0   20092
                                             10 COMMON     3     3      0
                   Absolute function *
           _I2C2_CallbackReturnReset *
            _I2C2_CallbackReturnStop *
               _I2C2_DO_SEND_RESTART
                  _I2C2_DO_SEND_STOP
              _rd1RegCompleteHandler *
              _rd2RegCompleteHandler *
            _rdBlkRegCompleteHandler *
              _wr1RegCompleteHandler *
              _wr2RegCompleteHandler *
 ---------------------------------------------------------------------------------
 (7) _wr2RegCompleteHandler                                1     0      1    3961
                                              9 COMMON     1     0      1
                     _I2C2_SetBuffer
       _I2C2_SetDataCompleteCallback
 ---------------------------------------------------------------------------------
 (7) _wr1RegCompleteHandler                                1     0      1    3961
                                              9 COMMON     1     0      1
                     _I2C2_SetBuffer
       _I2C2_SetDataCompleteCallback
 ---------------------------------------------------------------------------------
 (7) _rdBlkRegCompleteHandler                              1     0      1    3983
                                              9 COMMON     1     0      1
                     _I2C2_SetBuffer
       _I2C2_SetDataCompleteCallback
 ---------------------------------------------------------------------------------
 (7) _rd2RegCompleteHandler                                1     0      1    3961
                                              9 COMMON     1     0      1
                     _I2C2_SetBuffer
       _I2C2_SetDataCompleteCallback
 ---------------------------------------------------------------------------------
 (7) _rd1RegCompleteHandler                                1     0      1    3961
                                              9 COMMON     1     0      1
                     _I2C2_SetBuffer
       _I2C2_SetDataCompleteCallback
 ---------------------------------------------------------------------------------
 (8) _I2C2_SetDataCompleteCallback                         4     1      3    2478
                                              5 COMMON     4     1      3
                   _I2C2_SetCallback
 ---------------------------------------------------------------------------------
 (9) _I2C2_SetCallback                                     5     2      3     914
                                              0 COMMON     5     2      3
 ---------------------------------------------------------------------------------
 (3) _I2C2_SetBuffer                                       4     2      2    1461
                                              0 COMMON     4     2      2
 ---------------------------------------------------------------------------------
 (7) _I2C2_DO_SEND_STOP                                    0     0      0       0
                    _I2C2_MasterStop
 ---------------------------------------------------------------------------------
 (8) _I2C2_MasterStop                                      0     0      0       0
 ---------------------------------------------------------------------------------
 (7) _I2C2_DO_SEND_RESTART                                 0     0      0       0
           _I2C2_MasterEnableRestart
 ---------------------------------------------------------------------------------
 (8) _I2C2_MasterEnableRestart                             0     0      0       0
 ---------------------------------------------------------------------------------
 (7) _I2C2_CallbackReturnStop                              1     0      1       0
                                              9 COMMON     1     0      1
 ---------------------------------------------------------------------------------
 (7) _I2C2_CallbackReturnReset                             1     0      1     265
                                              9 COMMON     1     0      1
 ---------------------------------------------------------------------------------
 (7) Absolute function(Fake)                               1     0      1       0
 ---------------------------------------------------------------------------------
 (4) _I2C2_MasterStart                                     0     0      0       0
 ---------------------------------------------------------------------------------
 (3) _I2C2_Close                                           2     2      0      24
                                              0 COMMON     2     2      0
                _I2C2_MasterClearIrq
                   _I2C2_MasterClose
              _I2C2_MasterDisableIrq
 ---------------------------------------------------------------------------------
 (4) _I2C2_MasterDisableIrq                                0     0      0       0
 ---------------------------------------------------------------------------------
 (4) _I2C2_MasterClose                                     0     0      0       0
 ---------------------------------------------------------------------------------
 (4) _I2C2_MasterClearIrq                                  0     0      0       0
 ---------------------------------------------------------------------------------
 Estimated maximum stack depth 9
 ---------------------------------------------------------------------------------

 Call Graph Graphs:

 _main (ROOT)
   _DispWriteValue
     _SendI2CData
       _I2C2_Close
         _I2C2_MasterClearIrq
         _I2C2_MasterClose
         _I2C2_MasterDisableIrq
       _I2C2_MasterOperation
         _I2C2_MasterStart
         _I2C2_Poller
           _I2C2_MasterFsm
             _I2C2_DO_ADDRESS_NACK *
               Absolute function(Fake) *
               _I2C2_CallbackReturnReset *
               _I2C2_CallbackReturnStop *
               _I2C2_DO_SEND_RESTART *
                 _I2C2_MasterEnableRestart
               _I2C2_DO_SEND_STOP *
                 _I2C2_MasterStop
               _rd1RegCompleteHandler *
                 _I2C2_SetBuffer
                 _I2C2_SetDataCompleteCallback
                   _I2C2_SetCallback
               _rd2RegCompleteHandler *
                 _I2C2_SetBuffer
                 _I2C2_SetDataCompleteCallback
                   _I2C2_SetCallback
               _rdBlkRegCompleteHandler *
                 _I2C2_SetBuffer
                 _I2C2_SetDataCompleteCallback
                   _I2C2_SetCallback
               _wr1RegCompleteHandler *
                 _I2C2_SetBuffer
                 _I2C2_SetDataCompleteCallback
                   _I2C2_SetCallback
               _wr2RegCompleteHandler *
                 _I2C2_SetBuffer
                 _I2C2_SetDataCompleteCallback
                   _I2C2_SetCallback
             _I2C2_DO_IDLE *
             _I2C2_DO_RCEN *
               _I2C2_MasterStartRx
             _I2C2_DO_RESET *
             _I2C2_DO_RX *
               Absolute function(Fake) *
               _I2C2_CallbackReturnReset *
               _I2C2_CallbackReturnStop *
               _I2C2_DO_RX_NACK_RESTART *
                 _I2C2_MasterSendNack
               _I2C2_DO_RX_NACK_STOP *
                 _I2C2_MasterSendNack
               _I2C2_MasterGetRxData *
               _I2C2_MasterSendAck *
               _rd1RegCompleteHandler *
                 _I2C2_SetBuffer
                 _I2C2_SetDataCompleteCallback
                   _I2C2_SetCallback
               _rd2RegCompleteHandler *
                 _I2C2_SetBuffer
                 _I2C2_SetDataCompleteCallback
                   _I2C2_SetCallback
               _rdBlkRegCompleteHandler *
                 _I2C2_SetBuffer
                 _I2C2_SetDataCompleteCallback
                   _I2C2_SetCallback
               _wr1RegCompleteHandler *
                 _I2C2_SetBuffer
                 _I2C2_SetDataCompleteCallback
                   _I2C2_SetCallback
               _wr2RegCompleteHandler *
                 _I2C2_SetBuffer
                 _I2C2_SetDataCompleteCallback
                   _I2C2_SetCallback
             _I2C2_DO_RX_ACK *
               _I2C2_MasterSendAck
             _I2C2_DO_RX_NACK_RESTART *
               _I2C2_MasterSendNack
             _I2C2_DO_RX_NACK_STOP *
               _I2C2_MasterSendNack
             _I2C2_DO_SEND_ADR_READ *
               _I2C2_MasterSendTxData
             _I2C2_DO_SEND_ADR_WRITE *
               _I2C2_MasterSendTxData
             _I2C2_DO_SEND_RESTART *
               _I2C2_MasterEnableRestart
             _I2C2_DO_SEND_RESTART_READ *
               _I2C2_MasterEnableRestart
             _I2C2_DO_SEND_RESTART_WRITE *
               _I2C2_MasterEnableRestart
             _I2C2_DO_SEND_STOP *
               _I2C2_MasterStop
             _I2C2_DO_TX *
               Absolute function(Fake) *
               _I2C2_CallbackReturnReset *
               _I2C2_CallbackReturnStop *
               _I2C2_DO_SEND_RESTART_READ *
                 _I2C2_MasterEnableRestart
               _I2C2_DO_SEND_RESTART_WRITE *
                 _I2C2_MasterEnableRestart
               _I2C2_DO_SEND_STOP *
                 _I2C2_MasterStop
               _I2C2_MasterIsNack *
               _I2C2_MasterSendTxData *
               _rd1RegCompleteHandler *
                 _I2C2_SetBuffer
                 _I2C2_SetDataCompleteCallback
                   _I2C2_SetCallback
               _rd2RegCompleteHandler *
                 _I2C2_SetBuffer
                 _I2C2_SetDataCompleteCallback
                   _I2C2_SetCallback
               _rdBlkRegCompleteHandler *
                 _I2C2_SetBuffer
                 _I2C2_SetDataCompleteCallback
                   _I2C2_SetCallback
               _wr1RegCompleteHandler *
                 _I2C2_SetBuffer
                 _I2C2_SetDataCompleteCallback
                   _I2C2_SetCallback
               _wr2RegCompleteHandler *
                 _I2C2_SetBuffer
                 _I2C2_SetDataCompleteCallback
                   _I2C2_SetCallback
             _I2C2_DO_TX_EMPTY *
               Absolute function(Fake) *
               _I2C2_CallbackReturnReset *
               _I2C2_CallbackReturnStop *
               _I2C2_DO_SEND_RESTART *
                 _I2C2_MasterEnableRestart
               _I2C2_DO_SEND_STOP *
                 _I2C2_MasterStop
               _I2C2_MasterSetIrq *
               _rd1RegCompleteHandler *
                 _I2C2_SetBuffer
                 _I2C2_SetDataCompleteCallback
                   _I2C2_SetCallback
               _rd2RegCompleteHandler *
                 _I2C2_SetBuffer
                 _I2C2_SetDataCompleteCallback
                   _I2C2_SetCallback
               _rdBlkRegCompleteHandler *
                 _I2C2_SetBuffer
                 _I2C2_SetDataCompleteCallback
                   _I2C2_SetCallback
               _wr1RegCompleteHandler *
                 _I2C2_SetBuffer
                 _I2C2_SetDataCompleteCallback
                   _I2C2_SetCallback
               _wr2RegCompleteHandler *
                 _I2C2_SetBuffer
                 _I2C2_SetDataCompleteCallback
                   _I2C2_SetCallback
             _I2C2_MasterClearIrq *
             _I2C2_MasterIsNack *
           _I2C2_MasterWaitForEvent
       _I2C2_Open
         _I2C2_MasterClearIrq
         _I2C2_MasterOpen
       _I2C2_SetBuffer
     ___awdiv
     ___awmod
       ___awdiv (ARG)
   _SYSTEM_Initialize
     _I2C2_Initialize
     _OSCILLATOR_Initialize
     _PIN_MANAGER_Initialize
     _PMD_Initialize

 Address spaces:
Name               Size   Autos  Total    Cost      Usage
BIGRAM             7F0      0       0       0        0.0%
EEDATA             100      0       0       0        0.0%
NULL                 0      0       0       0        0.0%
CODE                 0      0       0       0        0.0%
BITCOMMON            E      0       0       1        0.0%
BITSFR0              0      0       0       1        0.0%
SFR0                 0      0       0       1        0.0%
COMMON               E      E       E       2      100.0%
BITSFR1              0      0       0       2        0.0%
SFR1                 0      0       0       2        0.0%
BITSFR2              0      0       0       3        0.0%
SFR2                 0      0       0       3        0.0%
STACK                0      0       0       3        0.0%
BITBANK0            50      0       0       4        0.0%
BITSFR3              0      0       0       4        0.0%
SFR3                 0      0       0       4        0.0%
BANK0               50     1A      38       5       70.0%
BITSFR4              0      0       0       5        0.0%
SFR4                 0      0       0       5        0.0%
BITSFR5              0      0       0       6        0.0%
SFR5                 0      0       0       6        0.0%
ABS                  0      0      46       6        0.0%
BITBANK1            50      0       0       7        0.0%
BITSFR6              0      0       0       7        0.0%
SFR6                 0      0       0       7        0.0%
BANK1               50      0       0       8        0.0%
BITSFR7              0      0       0       8        0.0%
SFR7                 0      0       0       8        0.0%
BITBANK2            50      0       0       9        0.0%
BITSFR8              0      0       0       9        0.0%
SFR8                 0      0       0       9        0.0%
BANK2               50      0       0      10        0.0%
BITSFR9              0      0       0      10        0.0%
SFR9                 0      0       0      10        0.0%
BITBANK3            50      0       0      11        0.0%
BITSFR10             0      0       0      11        0.0%
SFR10                0      0       0      11        0.0%
BANK3               50      0       0      12        0.0%
BITSFR11             0      0       0      12        0.0%
SFR11                0      0       0      12        0.0%
BITBANK4            50      0       0      13        0.0%
BITSFR12             0      0       0      13        0.0%
SFR12                0      0       0      13        0.0%
BANK4               50      0       0      14        0.0%
BITSFR13             0      0       0      14        0.0%
SFR13                0      0       0      14        0.0%
BITBANK5            50      0       0      15        0.0%
BITSFR14             0      0       0      15        0.0%
SFR14                0      0       0      15        0.0%
BANK5               50      0       0      16        0.0%
BITSFR15             0      0       0      16        0.0%
SFR15                0      0       0      16        0.0%
BITBANK6            50      0       0      17        0.0%
BITSFR16             0      0       0      17        0.0%
SFR16                0      0       0      17        0.0%
BANK6               50      0       0      18        0.0%
BITSFR17             0      0       0      18        0.0%
SFR17                0      0       0      18        0.0%
BITBANK7            50      0       0      19        0.0%
BITSFR18             0      0       0      19        0.0%
SFR18                0      0       0      19        0.0%
BANK7               50      0       0      20        0.0%
BITSFR19             0      0       0      20        0.0%
SFR19                0      0       0      20        0.0%
BITBANK8            50      0       0      21        0.0%
BITSFR20             0      0       0      21        0.0%
SFR20                0      0       0      21        0.0%
BANK8               50      0       0      22        0.0%
BITSFR21             0      0       0      22        0.0%
SFR21                0      0       0      22        0.0%
BITBANK9            50      0       0      23        0.0%
BITSFR22             0      0       0      23        0.0%
SFR22                0      0       0      23        0.0%
BANK9               50      0       0      24        0.0%
BITSFR23             0      0       0      24        0.0%
SFR23                0      0       0      24        0.0%
BITBANK10           50      0       0      25        0.0%
BITSFR24             0      0       0      25        0.0%
SFR24                0      0       0      25        0.0%
BANK10              50      0       0      26        0.0%
BITSFR25             0      0       0      26        0.0%
SFR25                0      0       0      26        0.0%
BITBANK11           50      0       0      27        0.0%
BITSFR26             0      0       0      27        0.0%
SFR26                0      0       0      27        0.0%
BANK11              50      0       0      28        0.0%
BITSFR27             0      0       0      28        0.0%
SFR27                0      0       0      28        0.0%
BITBANK12           50      0       0      29        0.0%
BITSFR28             0      0       0      29        0.0%
SFR28                0      0       0      29        0.0%
BANK12              50      0       0      30        0.0%
BITSFR29             0      0       0      30        0.0%
SFR29                0      0       0      30        0.0%
BITBANK13           50      0       0      31        0.0%
BITSFR30             0      0       0      31        0.0%
SFR30                0      0       0      31        0.0%
BANK13              50      0       0      32        0.0%
BITSFR31             0      0       0      32        0.0%
SFR31                0      0       0      32        0.0%
BITBANK14           50      0       0      33        0.0%
BITSFR32             0      0       0      33        0.0%
SFR32                0      0       0      33        0.0%
BANK14              50      0       0      34        0.0%
BITSFR33             0      0       0      34        0.0%
SFR33                0      0       0      34        0.0%
BITBANK15           50      0       0      35        0.0%
BITSFR34             0      0       0      35        0.0%
SFR34                0      0       0      35        0.0%
BANK15              50      0       0      36        0.0%
BITSFR35             0      0       0      36        0.0%
SFR35                0      0       0      36        0.0%
BITBANK16           50      0       0      37        0.0%
BITSFR36             0      0       0      37        0.0%
SFR36                0      0       0      37        0.0%
BANK16              50      0       0      38        0.0%
BITSFR37             0      0       0      38        0.0%
SFR37                0      0       0      38        0.0%
BITBANK17           50      0       0      39        0.0%
BITSFR38             0      0       0      39        0.0%
SFR38                0      0       0      39        0.0%
BANK17              50      0       0      40        0.0%
BITSFR39             0      0       0      40        0.0%
SFR39                0      0       0      40        0.0%
BITBANK18           50      0       0      41        0.0%
BITSFR40             0      0       0      41        0.0%
SFR40                0      0       0      41        0.0%
BANK18              50      0       0      42        0.0%
BITSFR41             0      0       0      42        0.0%
SFR41                0      0       0      42        0.0%
BITBANK19           50      0       0      43        0.0%
BITSFR42             0      0       0      43        0.0%
SFR42                0      0       0      43        0.0%
BANK19              50      0       0      44        0.0%
BITSFR43             0      0       0      44        0.0%
SFR43                0      0       0      44        0.0%
BITBANK20           50      0       0      45        0.0%
BITSFR44             0      0       0      45        0.0%
SFR44                0      0       0      45        0.0%
BANK20              50      0       0      46        0.0%
BITSFR45             0      0       0      46        0.0%
SFR45                0      0       0      46        0.0%
BITBANK21           50      0       0      47        0.0%
BITSFR46             0      0       0      47        0.0%
SFR46                0      0       0      47        0.0%
BANK21              50      0       0      48        0.0%
BITSFR47             0      0       0      48        0.0%
SFR47                0      0       0      48        0.0%
BITBANK22           50      0       0      49        0.0%
BITSFR48             0      0       0      49        0.0%
SFR48                0      0       0      49        0.0%
BANK22              50      0       0      50        0.0%
BITSFR49             0      0       0      50        0.0%
SFR49                0      0       0      50        0.0%
BITBANK23           50      0       0      51        0.0%
BITSFR50             0      0       0      51        0.0%
SFR50                0      0       0      51        0.0%
BANK23              50      0       0      52        0.0%
BITSFR51             0      0       0      52        0.0%
SFR51                0      0       0      52        0.0%
BITBANK24           50      0       0      53        0.0%
BITSFR52             0      0       0      53        0.0%
SFR52                0      0       0      53        0.0%
BANK24              50      0       0      54        0.0%
BITSFR53             0      0       0      54        0.0%
SFR53                0      0       0      54        0.0%
BITBANK25           20      0       0      55        0.0%
BITSFR54             0      0       0      55        0.0%
SFR54                0      0       0      55        0.0%
BANK25              20      0       0      56        0.0%
BITSFR55             0      0       0      56        0.0%
SFR55                0      0       0      56        0.0%
BITSFR56             0      0       0      57        0.0%
SFR56                0      0       0      57        0.0%
DATA                 0      0      46      57        0.0%
BITSFR57             0      0       0      58        0.0%
SFR57                0      0       0      58        0.0%
BITSFR58             0      0       0      59        0.0%
SFR58                0      0       0      59        0.0%
BITSFR59             0      0       0      60        0.0%
SFR59                0      0       0      60        0.0%
BITSFR60             0      0       0      61        0.0%
SFR60                0      0       0      61        0.0%
BITSFR61             0      0       0      62        0.0%
SFR61                0      0       0      62        0.0%
BITSFR62             0      0       0      63        0.0%
SFR62                0      0       0      63        0.0%
BITSFR63             0      0       0      64        0.0%
SFR63                0      0       0      64        0.0%


Microchip Technology PIC Macro Assembler V2.10 build 88905656 
Symbol Table                                                                                   Sun Mar 22 00:05:26 2020

                                    _i 003D                     _I2C2_MasterSendAck 0340  
                          __CFG_CP$OFF 0000                                     l90 0421  
                                   l93 0432                                     l96 0443  
                                   l99 0410                           ___awdiv@sign 0076  
                  _I2C2_MasterSendNack 033C                     _I2C2_MasterStartRx 0333  
                 _I2C2_DO_ADDRESS_NACK 0511                   ?_I2C2_MasterClearIrq 0070  
                          __CFG_LVP$ON 0000               __end_of_I2C2_SetCallback 04BD  
                                  l102 045B                                    l310 05D4  
                                  l142 03B1                                    l320 0496  
                                  l145 03BB                                    l314 0477  
                                  l306 03A8                                    l403 038E  
                                  l139 03EF                                    l333 03FF  
                                  l309 05D3                                    l502 037B  
                                  l430 0357                                    l336 03C8  
                                  l353 04BC                                    l505 0343  
                                  l409 056B                                    l433 035C  
                                  l442 036B                                    l523 0329  
                                  l427 0352                                    l363 0510  
                                  l508 033F                                    l372 0396  
                                  l436 0361                                    l532 037C  
                                  l445 0370                                    l526 0323  
                                  l462 031E                                    l366 034D  
                                  l454 053C                                    l198 059A  
                                  l375 06E5                                    l391 0630  
                                  l439 0366                                    l359 03D5  
                                  l392 0658                                    l448 0375  
                                  l536 0381                                    l465 0320  
                                  l481 0338                                    l529 033B  
                                  l369 039F                                    l378 0701  
                                  l475 03E2                                    l484 0348  
                                  l493 0335                                    l901 06AC  
                                  l478 0326                                    l574 07F4  
                                  l487 032F                                    l496 032C  
                                  l577 05D7                                    l499 0332  
                                  l579 0612                                    l888 0760  
                                  _RA2 0062                                    u600 03F6  
                                  u601 03F5                                    u610 06B5  
                                  u611 06B4                                    u700 0463  
                                  u620 06FE                                    u701 0462  
                                  u621 06FD                                    u630 062B  
                                  u710 0480                                    u631 062A  
                                  u711 047F                                    u640 0381  
                                  u720 0487                                    u641 0380  
                                  u721 0486                                    u650 04EE  
                                  u730 05E5                                    u810 0733  
                                  u651 04ED                                    u731 05E4  
                                  u811 0732                                    u660 04F6  
                                  u740 05F0                    ?_I2C2_MasterSendAck 0070  
                                  u661 04F5                                    u741 05EF  
                                  u805 0727                                    u590 049E  
                                  u670 03DB                                    u750 05F6  
                                  u830 0742                                    u910 0685  
                                  u591 049D                                    u671 03DA  
                                  u751 05F5                                    u831 0741  
                                  u911 0684                                    u680 03D5  
                                  u760 05FB                                    u920 068F  
                                  u681 03D4                                    u761 05FA  
                                  u825 0734                                    u921 068E  
                                  u905 0679                                    u690 05A3  
                                  u850 0752                                    u770 0707  
                                  u691 05A2                                    u851 0751  
                                  u835 073E                                    u771 0706  
                                  u860 0757                                    u780 0712  
                                  u940 069E                                    u861 0756  
                                  u845 0748                                    u781 0711  
                                  u941 069D                                    u925 068B  
                                  u790 0723                                    u950 06A3  
                                  u870 065F                                    u791 0722  
                                  u951 06A2                                    u935 0694  
                                  u871 065E                                    u880 066A  
                                  u881 0669                                    u890 0675  
                                  u891 0674                                    u965 0771  
                                  u975 0799                                    u985 07C1  
                                  u995 07DE                __size_of_PMD_Initialize 000A  
                         ___awmod@sign 003F                           __CFG_BORV$LO 0000  
                                  wreg 0009                    ?_I2C2_MasterStartRx 0070  
            ??_I2C2_DO_RX_NACK_RESTART 0070                          __CFG_BBEN$OFF 0000  
   __size_of_I2C2_DO_SEND_RESTART_READ 0005       __end_of_I2C2_CallbackReturnReset 0321  
           ?_I2C2_DO_SEND_RESTART_READ 0070                ??_rd2RegCompleteHandler 007A  
                                 l2021 03BC                                   l2101 0340  
                                 l2031 0330                                   l2023 03F1  
                                 l2015 0498                                   l2111 036A  
                                 l2103 036C                                   l2025 03F6  
                                 l2017 049E                                   l2033 033C  
                                 l2201 062E                                   l2105 036F  
                                 l2027 03FE                                   l2019 04AF  
                                 l2035 0411                                   l2043 0422  
                                 l2051 0433                                   l2115 0333  
                                 l2123 0339                                   l2211 0636  
                                 l2133 0321                                   l2029 032D  
                                 l2061 0408                                   l2037 0419  
                                 l2045 042A                                   l2053 043B  
                                 l2125 031D                                   l2117 0358  
                                 l2109 0367                                   l2301 03D6  
                                 l2063 040F                                   l2039 0420  
                                 l2047 0431                                   l2055 0442  
                                 l2231 053D                                   l2135 0349  
                                 l2143 0397                                   l2151 038F  
                                 l2207 0632                                   l2223 0388  
                                 l2119 035B                                   l2303 03DB  
                                 l2313 0327                                   l2129 031F  
                                 l2073 0376                                   l2233 0540  
                                 l2137 034B                                   l2145 0399  
                                 l2153 0391                                   l2217 063A  
                                 l2225 038A                                   l2081 0351  
                                 l2321 03CA                                   l2305 03DC  
                                 l2401 03A2                                   l2315 0324  
                                 l2059 0400                                   l2067 0444  
                                 l2243 0549                                   l2139 034C  
                                 l2147 039E                                   l2155 0395  
                                 l2171 06BE                                   l2163 06B6  
                                 l2227 038D                                   l2091 035D  
                                 l2323 03CD                                   l2307 03DE  
                                 l2331 05A7                                   l2403 03A4  
                                 l2411 0572                                   l2317 032A  
                                 l2069 045A                                   l2077 0345  
                                 l2237 0544                                   l2181 06F3  
                                 l2085 0353                                   l2093 0360  
                                 l2261 0371                                   l2325 03D0  
                                 l2309 03E1                                   l2341 05B8  
                                 l2333 05A8                                   l2501 072F  
                                 l2405 03A7                                   l2421 0583  
                                 l2413 0574                                   l2239 0547  
                                 l2183 06FE                                   l2167 06BA  
                                 l2159 06AD                                   l2079 034E  
                                 l2087 0356                                   l2255 0362  
                                 l2263 0373                                   l2271 0513  
                                 l2319 03C9                                   l2351 05CC  
                                 l2343 05BD                                   l2335 05A9  
                                 l2327 059C                                   l2511 074C  
                                 l2503 0733                                   l2431 058D  
                                 l2423 0585                                   l2415 0576  
                                 l2407 056C                                   l2361 0463  
                                 l2097 0336                                   l2249 054D  
                                 l2185 0700                                   l2177 06C2  
                                 l2193 0613                                   l2257 0365  
                                 l2265 0374                                   l2273 0518  
                                 l2353 05CF                                   l2345 05C1  
                                 l2337 05B2                                   l2329 05A3  
                                 l2505 0742                                   l2513 0752  
                                 l2521 0659                                   l2441 03A9  
                                 l2433 058F                                   l2425 0587  
                                 l2417 0579                                   l2409 0570  
                                 l2371 0471                                   l2363 0464  
                                 l2179 06E7                                   l2195 061D  
                                 l2283 0520                                   l2291 04E6  
                                 l2355 05D2                                   l2347 05C6  
                                 l2339 05B7                                   l2451 05DF  
                                 l2515 0757                                   l2507 0746  
                                 l2531 066A                                   l2523 065B  
                                 l2443 03AC                                   l2435 0592  
                                 l2427 0589                                   l2419 057B  
                                 l2365 0468                                   l2373 0476  
                                 l2197 0621                                   l2277 051C  
                                 l2269 0511                                   l2293 04E9  
                                 l2381 0481                                   l2349 05C7  
                                 l2461 05F6                                   l2453 05E5  
                                 l2517 075C                                   l2509 0747  
                                 l2541 0681                                   l2533 066F  
                                 l2525 065F                                   l2445 03AD  
                                 l2437 0595                                   l2429 058B  
                                 l2367 046B                                   l2359 045C  
                                 l2199 062B                                   l2295 04EE  
                                 l2391 0491                                   l2383 0482  
                                 l2471 060D                                   l2463 05FB  
                                 l2543 0685                                   l2535 0675  
                                 l2551 069E                                   l2527 0664  
                                 l2447 03B0                                   l2439 0597  
                                 l2369 046E                                   l2297 04F6  
                                 l2385 0487                                   l2393 0494  
                                 l2377 047A                                   l2473 0610  
                                 l2457 05E7                                   l2449 05D7  
                                 l2481 0707                                   l2553 06A3  
                                 l2545 068F                                   l2537 0678  
                                 l2529 0666                                   l2561 03E6  
                                 l2721 04BD                                   l2299 04FB  
                                 l2387 048A                                   l2379 0480  
                                 l2467 05FD                                   l2459 05F0  
                                 l2491 071B                                   l2483 070C  
                                 l2555 06A8                                   l2547 0693  
                                 l2539 067D                                   l2571 077F  
                                 l2563 03E9                                   l2731 04D0  
                                 l2723 04C0                                   l2821 055D  
                                 l2389 048E                                   l2469 0605  
                                 l2493 071D                                   l2485 070E  
                                 l2477 0702                                   l2549 0698  
                                 l2573 07A7                                   l2397 03B2  
                                 l2565 03EC                                   l2733 04D7  
                                 l2725 04C2                                   l2815 0534  
                                 l2495 0723                                   l2487 0712  
                                 l2479 0703                                   l2575 07CA  
                                 l2567 0761                                   l2399 03A0  
                                 l2559 03E3                                   l2727 04C3  
                                 l2817 064A                                   l2497 0726  
                                 l2489 0717                                   l2577 07E7  
                                 l2569 077A                                   l2729 04CC  
                                 l2819 06D7                                   l2499 072B  
                                 l2579 07EC                ?_I2C2_DO_SEND_ADR_WRITE 0070  
                 _I2C2_MasterOperation 0478                                   u1150 04CA  
                                 u1151 04C7                                   u1164 04CC  
                                 _LATA 0018                                   _LATB 0019  
                                 _LATC 001A                                   u1177 04DD  
                                 _PMD0 0796                                   _PMD1 0797  
                                 _PMD2 0798                                   _PMD3 0799  
                                 _PMD4 079A                                   _PMD5 079B  
                                 _PMD6 079C                                   _PMD7 079D  
            I2C2_MasterSendTxData@data 0070                                   _WPUA 1F39  
                                 _WPUB 1F44                                   _WPUC 1F4F  
                 ?_I2C2_MasterSendNack 0070         __size_of_I2C2_DO_SEND_ADR_READ 0009  
              ??_wr2RegCompleteHandler 007A                  ?_I2C2_MasterGetRxData 0070  
        __end_of_I2C2_DO_SEND_ADR_READ 03A0                          __CFG_FCMEN$ON 0000  
                                 _main 04BD                                   fsr0h 0005  
                                 fsr1h 0007                                   indf0 0000  
                                 fsr0l 0004                                   indf1 0001  
                                 fsr1l 0006                                   btemp 007E  
                 ??_I2C2_MasterSendAck 0070                          __CFG_BOREN$ON 0000  
                                 start 0002              __size_of_I2C2_DO_TX_EMPTY 002F  
                 ??_I2C2_MasterStartRx 0070                       ??_I2C2_MasterFsm 003E  
                        __CFG_CSWEN$ON 0000                          __CFG_MCLRE$ON 0000  
                _I2C2_MasterSendTxData 0344       __size_of_rdBlkRegCompleteHandler 0018  
                     ??_I2C2_SetBuffer 0072                  ?_I2C2_DO_ADDRESS_NACK 0070  
       __size_of_OSCILLATOR_Initialize 0009          __end_of_OSCILLATOR_Initialize 03B2  
                ??_I2C2_MasterClearIrq 0070            ?_I2C2_DO_SEND_RESTART_WRITE 0070  
 __end_of_I2C2_SetDataCompleteCallback 03C9  __size_of_I2C2_SetDataCompleteCallback 000D  
         _I2C2_SetDataCompleteCallback 03BC                                  ?_main 0070  
                    __end_of_I2C2_Open 05D5                        __end_of___awdiv 0761  
                        __CFG_WDTE$OFF 0000                        __end_of___awmod 06AD  
                      ___awdiv@divisor 0070                        ___awdiv@counter 0075  
                                _OSCEN 0891                                  _PORTA 000C  
                                _TRISA 0012                                  _TRISB 0013  
                                _TRISC 0014                          ??_SendI2CData 0045  
                        __CFG_WRTB$OFF 0000                 ?_I2C2_MasterDisableIrq 0070  
                        __CFG_WRTC$OFF 0000                          __CFG_WRTD$OFF 0000  
       __end_of_I2C2_DO_SEND_ADR_WRITE 0397               ?_I2C2_CallbackReturnStop 0079  
                ?_I2C2_MasterOperation 0070                  I2C2_Close@returnValue 0071  
    __end_of_I2C2_DO_SEND_RESTART_READ 0353                  ??_I2C2_MasterSendNack 0070  
                                pclath 000A                   _I2C2_DO_RX_NACK_STOP 0367  
                                status 0003                                  wtemp0 007E  
                         ??_I2C2_DO_RX 007A                           ??_I2C2_DO_TX 007A  
                         ??_I2C2_Close 0070                      ??_I2C2_MasterOpen 0070  
                        _fsmStateTable 0800                      ??_I2C2_MasterStop 0070  
                    ??_I2C2_Initialize 0070                        __initialization 07F5  
                         __end_of_main 04E6                         __CFG_SAFEN$OFF 0000  
                               ??_main 0056                       SendI2CData@_data 0047  
     __size_of_I2C2_MasterWaitForEvent 0006                     __end_of_I2C2_DO_RX 0659  
                   __end_of_I2C2_DO_TX 0702                     __end_of_I2C2_Close 0478  
                     ___awdiv@dividend 0072                                 _ANSELA 1F38  
                               _ANSELB 1F43                                 _ANSELC 1F4E  
                   __CFG_RSTOSC$HFINT1 0000                 ??_I2C2_MasterGetRxData 0070  
                ?_I2C2_DO_RX_NACK_STOP 0070                                 _RB5PPS 1F1D  
                  __end_of_SendI2CData 0613                                 _RB7PPS 1F1F  
                               _ODCONA 1F3A                                 _ODCONB 1F45  
                               _ODCONC 1F50                         __CFG_WDTCCS$SC 0000  
                               _INLVLA 1F3C                                 _INLVLB 1F47  
                               _INLVLC 1F52                                 _OSCFRQ 0893  
             _I2C2_CallbackReturnReset 031F                  DispWriteValue@packets 004E  
               ?_I2C2_MasterSendTxData 0070                         __CFG_PWRTS$OFF 0000  
                 I2C2_SetBuffer@buffer 0073                              ??___awdiv 0074  
                       __CFG_STVREN$ON 0000                              ??___awmod 007D  
               ??_I2C2_DO_ADDRESS_NACK 007A                       ___awdiv@quotient 0077  
                      ___awmod@divisor 0079                        ___awmod@counter 003E  
      __end_of_I2C2_CallbackReturnStop 031F                         _PMD_Initialize 03B2  
               ??_I2C2_MasterOperation 007D         I2C2_CallbackReturnReset@funPtr 0079  
        __size_of_I2C2_DO_SEND_RESTART 0005                      _SYSTEM_Initialize 03E3  
              __end_of__initialization 07FD                      ?_I2C2_MasterClose 0070  
                   ?_SYSTEM_Initialize 0070                      ?_I2C2_MasterStart 0070  
             I2C2_SetBuffer@bufferSize 0070                     ??_I2C2_MasterClose 0070  
                     _I2C2_DO_TX_EMPTY 053D                          ??_I2C2_Poller 007D  
              _rdBlkRegCompleteHandler 0444                     ??_I2C2_MasterStart 0070  
                       __pcstackCOMMON 0070                    ??_SYSTEM_Initialize 0070  
               __end_of_PMD_Initialize 03BC                      ?_I2C2_SetCallback 0070  
                          _SendI2CData 05D5                     ??_I2C2_SetCallback 0073  
               ??_I2C2_DO_RX_NACK_STOP 0070                __size_of_DispWriteValue 0094  
            __end_of_SYSTEM_Initialize 03F0                  __end_of_I2C2_DO_RESET 0376  
          ??_I2C2_DO_SEND_RESTART_READ 0070                             __pbssBANK0 0020  
       __size_of_rd2RegCompleteHandler 0011          __end_of_rd2RegCompleteHandler 0433  
                    SendI2CData@result 0048         __size_of_wr2RegCompleteHandler 0011  
                         SendI2CData@i 0046          __end_of_wr2RegCompleteHandler 0411  
                _rd1RegCompleteHandler 0411                  _wr1RegCompleteHandler 0433  
                           __pmaintext 04BD               rd1RegCompleteHandler@ptr 0079  
                      __CFG_PPS1WAY$ON 0000                    __end_of_I2C2_Poller 03D6  
              _I2C2_MasterWaitForEvent 037C                        __CFG_ZCDDIS$OFF 0000  
                      ?_PMD_Initialize 0070                ??_I2C2_MasterDisableIrq 0070  
    __size_of_I2C2_MasterEnableRestart 0003                                _OSCCON1 088D  
                              _OSCCON3 088F                              _I2C2_Open 059B  
            ?_I2C2_MasterEnableRestart 0070                __size_of_I2C2_DO_RX_ACK 0005  
                              _OSCTUNE 0892                                _SSP2ADD 0197  
                              _SLRCONA 1F3B                                _SLRCONB 1F46  
                              _SLRCONC 1F51                                _SSP2BUF 0196  
                      _I2C2_MasterOpen 03D6                        _I2C2_MasterStop 0330  
                      _I2C2_Initialize 03A0              ??_rdBlkRegCompleteHandler 007A  
          __size_of_I2C2_MasterSendAck 0004                  _I2C2_DO_SEND_ADR_READ 0397  
     __size_of_I2C2_CallbackReturnStop 0002            __size_of_I2C2_MasterStartRx 0003  
          __end_of_I2C2_MasterClearIrq 0324              _I2C2_DO_SEND_RESTART_READ 034E  
                              ___awdiv 0702                                ___awmod 0659  
                              __ptext1 03E3                                __ptext2 03B2  
                              __ptext3 056C                                __ptext4 03A9  
                              __ptext5 03A0                                __ptext6 0761  
                              __ptext7 0659                                __ptext8 0702  
                              __ptext9 05D5                          ?_I2C2_DO_IDLE 0070  
                        ?_I2C2_DO_RCEN 0070               ?_I2C2_DO_RX_NACK_RESTART 0070  
                      __CFG_WRTAPP$OFF 0000                  _OSCILLATOR_Initialize 03A9  
                     ___awmod@dividend 007B            __end_of_I2C2_MasterSendNack 0340  
             ??_PIN_MANAGER_Initialize 0070                        __CFG_WRTSAF$OFF 0000  
             wr1RegCompleteHandler@ptr 0079             ??_I2C2_CallbackReturnReset 007A  
                           ?_I2C2_Open 0070             __size_of_SYSTEM_Initialize 000D  
        I2C2_CallbackReturnStop@funPtr 0079                                clrloop0 0383  
                 end_of_initialization 07FD                ??_I2C2_MasterSendTxData 0070  
                 SendI2CData@_dataSize 0043                 ?_rd1RegCompleteHandler 0079  
               ?_wr1RegCompleteHandler 0079                            _I2C2_Poller 03C9  
                    _I2C2_DO_SEND_STOP 035D                            _I2C2_Status 0020  
            ??_I2C2_MasterWaitForEvent 0070                     ?_I2C2_DO_SEND_STOP 0070  
                __CFG_WDTCPS$WDTCPS_31 0000                         ??_I2C2_DO_IDLE 0070  
                       ??_I2C2_DO_RCEN 0070                   I2C2_Open@returnValue 0072  
      __end_of_rdBlkRegCompleteHandler 045C                    ??_I2C2_DO_SEND_STOP 0070  
              __size_of_I2C2_MasterFsm 002B                __end_of_I2C2_MasterOpen 03E3  
              __end_of_I2C2_MasterStop 0333                __end_of_I2C2_Initialize 03A9  
             __end_of_I2C2_DO_TX_EMPTY 056C                      _I2C2_MasterIsNack 0376  
              __size_of_I2C2_SetBuffer 0010                         _DispWriteValue 0761  
                    _I2C2_MasterSetIrq 0339                     ?_I2C2_MasterIsNack 0070  
                     __CFG_FEXTOSC$OFF 0000                     ?_I2C2_MasterSetIrq 0070  
        __size_of_I2C2_MasterGetRxData 0003                 ?_I2C2_DO_SEND_ADR_READ 0070  
           rdBlkRegCompleteHandler@ptr 0079                    ??_I2C2_MasterIsNack 0070  
            __end_of_I2C2_DO_SEND_STOP 0362                    ??_I2C2_MasterSetIrq 0070  
      __end_of_I2C2_DO_RX_NACK_RESTART 0371           __end_of_I2C2_DO_SEND_RESTART 035D  
             I2C2_MasterOperation@read 0041          __size_of_I2C2_DO_ADDRESS_NACK 002C  
            __size_of_I2C2_MasterClose 0003                 ?_OSCILLATOR_Initialize 0070  
             ??_I2C2_DO_SEND_ADR_WRITE 0071              __size_of_I2C2_MasterStart 0003  
            __end_of_I2C2_MasterIsNack 037C                    start_initialization 07F5  
                         ?_SendI2CData 0043                 __end_of_DispWriteValue 07F5  
            __end_of_I2C2_MasterSetIrq 033C                         _I2C2_DO_RX_ACK 0362  
                          ??_I2C2_Open 0070        __size_of_PIN_MANAGER_Initialize 002F  
        ?_I2C2_SetDataCompleteCallback 0075          __size_of_I2C2_MasterOperation 001F  
            __size_of_I2C2_SetCallback 0026                _I2C2_CallbackReturnStop 031D  
                     __CFG_LPBOREN$OFF 0000                       ??_PMD_Initialize 0070  
     __end_of_I2C2_MasterEnableRestart 0330           ??_I2C2_DO_SEND_RESTART_WRITE 0070  
               __end_of_I2C2_DO_RX_ACK 0367                       ?_I2C2_MasterOpen 0070  
                     ?_I2C2_MasterStop 0070                       ?_I2C2_Initialize 0070  
       __size_of_I2C2_MasterDisableIrq 0003                        ?_DispWriteValue 0049  
                            ___latbits 0003          __end_of_I2C2_MasterDisableIrq 032A  
                        __pcstackBANK0 003E          __size_of_I2C2_DO_RX_NACK_STOP 0005  
                 __end_of_I2C2_DO_IDLE 034E                   __end_of_I2C2_DO_RCEN 038F  
           __size_of_I2C2_DO_SEND_STOP 0005                  _rd2RegCompleteHandler 0422  
                __end_of_fsmStateTable 0820                 _PIN_MANAGER_Initialize 056C  
                _wr2RegCompleteHandler 0400    __size_of_I2C2_DO_SEND_RESTART_WRITE 0005  
             rd2RegCompleteHandler@ptr 0079                               ?___awdiv 0070  
                             ?___awmod 0079                 __size_of_I2C2_DO_RESET 0005  
                       _I2C2_MasterFsm 04E6                        ?_I2C2_DO_RX_ACK 0070  
      __size_of_I2C2_DO_SEND_ADR_WRITE 0008             __size_of_I2C2_MasterIsNack 0006  
           __size_of_I2C2_MasterSetIrq 0003                         _I2C2_SetBuffer 03F0  
              ??_rd1RegCompleteHandler 007A                   _I2C2_DO_SEND_RESTART 0358  
           __end_of_I2C2_MasterSendAck 0344                ??_wr1RegCompleteHandler 007A  
     __size_of_I2C2_DO_RX_NACK_RESTART 0005              ??_I2C2_CallbackReturnStop 007A  
       ??_I2C2_SetDataCompleteCallback 0078        I2C2_MasterOperation@returnValue 0042  
                           _I2C2_DO_RX 0613                             _I2C2_DO_TX 06AD  
           __end_of_I2C2_MasterStartRx 0336                              clear_ram0 0382  
       __size_of_I2C2_MasterSendTxData 0005                               _PIE3bits 0719  
        __end_of_I2C2_MasterSendTxData 0349                             _I2C2_Close 045C  
                         ?_I2C2_Poller 0070                               _PIR3bits 070F  
                    __CFG_BBSIZE$BB512 0000                               _SSP2CON1 019A  
                             _SSP2CON2 019B                               _SSP2STAT 0199  
               __end_of_I2C2_MasterFsm 0511                       _I2C2_MasterClose 0324  
                     _I2C2_MasterStart 032A               _I2C2_MasterEnableRestart 032D  
         __size_of_I2C2_MasterClearIrq 0003                       I2C2_Open@address 0071  
               __end_of_I2C2_SetBuffer 0400                      ?_I2C2_DO_TX_EMPTY 0070  
             wr2RegCompleteHandler@ptr 0079                   __size_of_SendI2CData 003E  
                   DispWriteValue@_val 0049                     ??_I2C2_DO_TX_EMPTY 007A  
              ??_I2C2_DO_SEND_ADR_READ 0070               ?_rdBlkRegCompleteHandler 0079  
                ?_I2C2_DO_SEND_RESTART 0070                          _I2C2_DO_RESET 0371  
         __size_of_I2C2_MasterSendNack 0004                       _I2C2_SetCallback 0497  
               ?_rd2RegCompleteHandler 0079                 _I2C2_DO_SEND_ADR_WRITE 038F  
               ?_wr2RegCompleteHandler 0079      __size_of_I2C2_CallbackReturnReset 0002  
            ?_I2C2_CallbackReturnReset 0079                ??_OSCILLATOR_Initialize 0070  
                     __size_of___awdiv 005F                       __size_of___awmod 0054  
                      ?_I2C2_MasterFsm 0070           __end_of_I2C2_MasterGetRxData 0339  
   __end_of_I2C2_DO_SEND_RESTART_WRITE 0358             _I2C2_DO_SEND_RESTART_WRITE 0353  
                      ?_I2C2_SetBuffer 0070                               __ptext10 059B  
                             __ptext11 03D6                               __ptext20 0362  
                             __ptext12 0478                               __ptext21 035D  
                             __ptext13 03C9                               __ptext30 0349  
                             __ptext22 0358                               __ptext14 037C  
                             __ptext31 053D                               __ptext23 0353  
                             __ptext15 04E6                               __ptext40 031D  
                             __ptext32 0339                               __ptext24 034E  
                             __ptext16 0511                               __ptext41 0444  
                             __ptext33 0376                               __ptext25 0388  
                             __ptext17 0371                               __ptext50 032D  
                             __ptext42 0433                               __ptext34 0344  
                             __ptext26 0613                               __ptext18 036C  
                             __ptext51 032A                               __ptext43 0422  
                             __ptext35 0340                               __ptext27 06AD  
                             __ptext19 0367                               __ptext52 045C  
                             __ptext44 0411                               __ptext36 0336  
                             __ptext28 038F                               __ptext53 0327  
                             __ptext45 0400                               __ptext37 033C  
                             __ptext29 0397                               __ptext54 0324  
                             __ptext46 03BC                               __ptext38 0333  
                             __ptext55 0321                               __ptext47 0497  
                             __ptext39 031F                               __ptext48 03F0  
                             __ptext49 0330                  __size_of_I2C2_DO_IDLE 0005  
                __size_of_I2C2_DO_RCEN 0007                         ?_I2C2_DO_RESET 0070  
                         _SSP2CON1bits 019A                           _SSP2CON2bits 019B  
         __end_of_I2C2_DO_ADDRESS_NACK 053D                          __size_of_main 0029  
                          ?_I2C2_DO_RX 0070                            ?_I2C2_DO_TX 0070  
             ?_I2C2_MasterWaitForEvent 0070                   __CFG_WDTCWS$WDTCWS_7 0000  
                          ?_I2C2_Close 0070                    I2C2_SetCallback@idx 0074  
                  I2C2_SetCallback@ptr 0072           __end_of_I2C2_MasterOperation 0497  
                     ??_DispWriteValue 004B                           _SSP2STATbits 0199  
                         _I2C2_DO_IDLE 0349                           _I2C2_DO_RCEN 0388  
               ??_I2C2_DO_SEND_RESTART 0070                _I2C2_DO_RX_NACK_RESTART 036C  
              ?_PIN_MANAGER_Initialize 0070                      __CFG_CLKOUTEN$OFF 0000  
                   I2C2_SetCallback@cb 0070                   __size_of_I2C2_Poller 000D  
                     ??_I2C2_DO_RX_ACK 0070           __end_of_I2C2_DO_RX_NACK_STOP 036C  
                        __pstringtext1 0800                             _SSP2DATPPS 1EC9  
                           _SSP2CLKPPS 1EC8                    __size_of_I2C2_DO_RX 0046  
                  __size_of_I2C2_DO_TX 0055        I2C2_SetDataCompleteCallback@ptr 0077  
                  __size_of_I2C2_Close 001C                        ??_I2C2_DO_RESET 0070  
                _I2C2_MasterDisableIrq 0327        __end_of_I2C2_MasterWaitForEvent 0382  
       __end_of_PIN_MANAGER_Initialize 059B         I2C2_SetDataCompleteCallback@cb 0075  
             __size_of_I2C2_MasterOpen 000D         __size_of_rd1RegCompleteHandler 0011  
             __size_of_I2C2_MasterStop 0003               __size_of_I2C2_Initialize 0009  
        __end_of_rd1RegCompleteHandler 0422               __end_of_I2C2_MasterClose 0327  
                   __size_of_I2C2_Open 003A                   _I2C2_MasterGetRxData 0336  
                  _I2C2_MasterClearIrq 0321         __size_of_wr1RegCompleteHandler 0011  
             __end_of_I2C2_MasterStart 032D          __end_of_wr1RegCompleteHandler 0444  
           ??_I2C2_MasterEnableRestart 0070  
